
ADC_6pmN.elf:     file format elf32-avr

Sections:
Idx Name          Size      VMA       LMA       File off  Algn
  0 .text         0000206a  00000000  00000000  00000074  2**1
                  CONTENTS, ALLOC, LOAD, READONLY, CODE
  1 .data         00000008  00800060  0000206a  000020de  2**0
                  CONTENTS, ALLOC, LOAD, DATA
  2 .stab         000019a4  00000000  00000000  000020e8  2**2
                  CONTENTS, READONLY, DEBUGGING
  3 .stabstr      00000f21  00000000  00000000  00003a8c  2**0
                  CONTENTS, READONLY, DEBUGGING
  4 .debug_aranges 00000140  00000000  00000000  000049ad  2**0
                  CONTENTS, READONLY, DEBUGGING
  5 .debug_pubnames 00000170  00000000  00000000  00004aed  2**0
                  CONTENTS, READONLY, DEBUGGING
  6 .debug_info   00001c49  00000000  00000000  00004c5d  2**0
                  CONTENTS, READONLY, DEBUGGING
  7 .debug_abbrev 00000eeb  00000000  00000000  000068a6  2**0
                  CONTENTS, READONLY, DEBUGGING
  8 .debug_line   00000dad  00000000  00000000  00007791  2**0
                  CONTENTS, READONLY, DEBUGGING
  9 .debug_frame  00000160  00000000  00000000  00008540  2**2
                  CONTENTS, READONLY, DEBUGGING
 10 .debug_str    0000028d  00000000  00000000  000086a0  2**0
                  CONTENTS, READONLY, DEBUGGING
 11 .debug_loc    000007ce  00000000  00000000  0000892d  2**0
                  CONTENTS, READONLY, DEBUGGING
 12 .debug_ranges 00000050  00000000  00000000  000090fb  2**0
                  CONTENTS, READONLY, DEBUGGING

Disassembly of section .text:

00000000 <__vectors>:
       0:	0c 94 2a 00 	jmp	0x54	; 0x54 <__ctors_end>
       4:	0c 94 3f 00 	jmp	0x7e	; 0x7e <__bad_interrupt>
       8:	0c 94 3f 00 	jmp	0x7e	; 0x7e <__bad_interrupt>
       c:	0c 94 3f 00 	jmp	0x7e	; 0x7e <__bad_interrupt>
      10:	0c 94 3f 00 	jmp	0x7e	; 0x7e <__bad_interrupt>
      14:	0c 94 3f 00 	jmp	0x7e	; 0x7e <__bad_interrupt>
      18:	0c 94 3f 00 	jmp	0x7e	; 0x7e <__bad_interrupt>
      1c:	0c 94 3f 00 	jmp	0x7e	; 0x7e <__bad_interrupt>
      20:	0c 94 3f 00 	jmp	0x7e	; 0x7e <__bad_interrupt>
      24:	0c 94 3f 00 	jmp	0x7e	; 0x7e <__bad_interrupt>
      28:	0c 94 3f 00 	jmp	0x7e	; 0x7e <__bad_interrupt>
      2c:	0c 94 3f 00 	jmp	0x7e	; 0x7e <__bad_interrupt>
      30:	0c 94 3f 00 	jmp	0x7e	; 0x7e <__bad_interrupt>
      34:	0c 94 3f 00 	jmp	0x7e	; 0x7e <__bad_interrupt>
      38:	0c 94 3f 00 	jmp	0x7e	; 0x7e <__bad_interrupt>
      3c:	0c 94 3f 00 	jmp	0x7e	; 0x7e <__bad_interrupt>
      40:	0c 94 3f 00 	jmp	0x7e	; 0x7e <__bad_interrupt>
      44:	0c 94 3f 00 	jmp	0x7e	; 0x7e <__bad_interrupt>
      48:	0c 94 3f 00 	jmp	0x7e	; 0x7e <__bad_interrupt>
      4c:	0c 94 3f 00 	jmp	0x7e	; 0x7e <__bad_interrupt>
      50:	0c 94 3f 00 	jmp	0x7e	; 0x7e <__bad_interrupt>

00000054 <__ctors_end>:
      54:	11 24       	eor	r1, r1
      56:	1f be       	out	0x3f, r1	; 63
      58:	cf e5       	ldi	r28, 0x5F	; 95
      5a:	d8 e0       	ldi	r29, 0x08	; 8
      5c:	de bf       	out	0x3e, r29	; 62
      5e:	cd bf       	out	0x3d, r28	; 61

00000060 <__do_copy_data>:
      60:	10 e0       	ldi	r17, 0x00	; 0
      62:	a0 e6       	ldi	r26, 0x60	; 96
      64:	b0 e0       	ldi	r27, 0x00	; 0
      66:	ea e6       	ldi	r30, 0x6A	; 106
      68:	f0 e2       	ldi	r31, 0x20	; 32
      6a:	02 c0       	rjmp	.+4      	; 0x70 <.do_copy_data_start>

0000006c <.do_copy_data_loop>:
      6c:	05 90       	lpm	r0, Z+
      6e:	0d 92       	st	X+, r0

00000070 <.do_copy_data_start>:
      70:	a8 36       	cpi	r26, 0x68	; 104
      72:	b1 07       	cpc	r27, r17
      74:	d9 f7       	brne	.-10     	; 0x6c <.do_copy_data_loop>
      76:	0e 94 58 0f 	call	0x1eb0	; 0x1eb0 <main>
      7a:	0c 94 33 10 	jmp	0x2066	; 0x2066 <_exit>

0000007e <__bad_interrupt>:
      7e:	0c 94 00 00 	jmp	0	; 0x0 <__vectors>

00000082 <__fixunssfsi>:
      82:	ef 92       	push	r14
      84:	ff 92       	push	r15
      86:	0f 93       	push	r16
      88:	1f 93       	push	r17
      8a:	7b 01       	movw	r14, r22
      8c:	8c 01       	movw	r16, r24
      8e:	20 e0       	ldi	r18, 0x00	; 0
      90:	30 e0       	ldi	r19, 0x00	; 0
      92:	40 e0       	ldi	r20, 0x00	; 0
      94:	5f e4       	ldi	r21, 0x4F	; 79
      96:	0e 94 41 03 	call	0x682	; 0x682 <__gesf2>
      9a:	88 23       	and	r24, r24
      9c:	8c f0       	brlt	.+34     	; 0xc0 <__fixunssfsi+0x3e>
      9e:	c8 01       	movw	r24, r16
      a0:	b7 01       	movw	r22, r14
      a2:	20 e0       	ldi	r18, 0x00	; 0
      a4:	30 e0       	ldi	r19, 0x00	; 0
      a6:	40 e0       	ldi	r20, 0x00	; 0
      a8:	5f e4       	ldi	r21, 0x4F	; 79
      aa:	0e 94 b9 01 	call	0x372	; 0x372 <__subsf3>
      ae:	0e 94 a1 03 	call	0x742	; 0x742 <__fixsfsi>
      b2:	9b 01       	movw	r18, r22
      b4:	ac 01       	movw	r20, r24
      b6:	20 50       	subi	r18, 0x00	; 0
      b8:	30 40       	sbci	r19, 0x00	; 0
      ba:	40 40       	sbci	r20, 0x00	; 0
      bc:	50 48       	sbci	r21, 0x80	; 128
      be:	06 c0       	rjmp	.+12     	; 0xcc <__fixunssfsi+0x4a>
      c0:	c8 01       	movw	r24, r16
      c2:	b7 01       	movw	r22, r14
      c4:	0e 94 a1 03 	call	0x742	; 0x742 <__fixsfsi>
      c8:	9b 01       	movw	r18, r22
      ca:	ac 01       	movw	r20, r24
      cc:	b9 01       	movw	r22, r18
      ce:	ca 01       	movw	r24, r20
      d0:	1f 91       	pop	r17
      d2:	0f 91       	pop	r16
      d4:	ff 90       	pop	r15
      d6:	ef 90       	pop	r14
      d8:	08 95       	ret

000000da <_fpadd_parts>:
      da:	a0 e0       	ldi	r26, 0x00	; 0
      dc:	b0 e0       	ldi	r27, 0x00	; 0
      de:	e3 e7       	ldi	r30, 0x73	; 115
      e0:	f0 e0       	ldi	r31, 0x00	; 0
      e2:	0c 94 fc 0f 	jmp	0x1ff8	; 0x1ff8 <__prologue_saves__>
      e6:	dc 01       	movw	r26, r24
      e8:	2b 01       	movw	r4, r22
      ea:	fa 01       	movw	r30, r20
      ec:	9c 91       	ld	r25, X
      ee:	92 30       	cpi	r25, 0x02	; 2
      f0:	08 f4       	brcc	.+2      	; 0xf4 <_fpadd_parts+0x1a>
      f2:	39 c1       	rjmp	.+626    	; 0x366 <_fpadd_parts+0x28c>
      f4:	eb 01       	movw	r28, r22
      f6:	88 81       	ld	r24, Y
      f8:	82 30       	cpi	r24, 0x02	; 2
      fa:	08 f4       	brcc	.+2      	; 0xfe <_fpadd_parts+0x24>
      fc:	33 c1       	rjmp	.+614    	; 0x364 <_fpadd_parts+0x28a>
      fe:	94 30       	cpi	r25, 0x04	; 4
     100:	69 f4       	brne	.+26     	; 0x11c <_fpadd_parts+0x42>
     102:	84 30       	cpi	r24, 0x04	; 4
     104:	09 f0       	breq	.+2      	; 0x108 <_fpadd_parts+0x2e>
     106:	2f c1       	rjmp	.+606    	; 0x366 <_fpadd_parts+0x28c>
     108:	11 96       	adiw	r26, 0x01	; 1
     10a:	9c 91       	ld	r25, X
     10c:	11 97       	sbiw	r26, 0x01	; 1
     10e:	89 81       	ldd	r24, Y+1	; 0x01
     110:	98 17       	cp	r25, r24
     112:	09 f4       	brne	.+2      	; 0x116 <_fpadd_parts+0x3c>
     114:	28 c1       	rjmp	.+592    	; 0x366 <_fpadd_parts+0x28c>
     116:	a0 e6       	ldi	r26, 0x60	; 96
     118:	b0 e0       	ldi	r27, 0x00	; 0
     11a:	25 c1       	rjmp	.+586    	; 0x366 <_fpadd_parts+0x28c>
     11c:	84 30       	cpi	r24, 0x04	; 4
     11e:	09 f4       	brne	.+2      	; 0x122 <_fpadd_parts+0x48>
     120:	21 c1       	rjmp	.+578    	; 0x364 <_fpadd_parts+0x28a>
     122:	82 30       	cpi	r24, 0x02	; 2
     124:	a9 f4       	brne	.+42     	; 0x150 <_fpadd_parts+0x76>
     126:	92 30       	cpi	r25, 0x02	; 2
     128:	09 f0       	breq	.+2      	; 0x12c <_fpadd_parts+0x52>
     12a:	1d c1       	rjmp	.+570    	; 0x366 <_fpadd_parts+0x28c>
     12c:	9a 01       	movw	r18, r20
     12e:	ad 01       	movw	r20, r26
     130:	88 e0       	ldi	r24, 0x08	; 8
     132:	ea 01       	movw	r28, r20
     134:	09 90       	ld	r0, Y+
     136:	ae 01       	movw	r20, r28
     138:	e9 01       	movw	r28, r18
     13a:	09 92       	st	Y+, r0
     13c:	9e 01       	movw	r18, r28
     13e:	81 50       	subi	r24, 0x01	; 1
     140:	c1 f7       	brne	.-16     	; 0x132 <_fpadd_parts+0x58>
     142:	e2 01       	movw	r28, r4
     144:	89 81       	ldd	r24, Y+1	; 0x01
     146:	11 96       	adiw	r26, 0x01	; 1
     148:	9c 91       	ld	r25, X
     14a:	89 23       	and	r24, r25
     14c:	81 83       	std	Z+1, r24	; 0x01
     14e:	08 c1       	rjmp	.+528    	; 0x360 <_fpadd_parts+0x286>
     150:	92 30       	cpi	r25, 0x02	; 2
     152:	09 f4       	brne	.+2      	; 0x156 <_fpadd_parts+0x7c>
     154:	07 c1       	rjmp	.+526    	; 0x364 <_fpadd_parts+0x28a>
     156:	12 96       	adiw	r26, 0x02	; 2
     158:	2d 90       	ld	r2, X+
     15a:	3c 90       	ld	r3, X
     15c:	13 97       	sbiw	r26, 0x03	; 3
     15e:	eb 01       	movw	r28, r22
     160:	8a 81       	ldd	r24, Y+2	; 0x02
     162:	9b 81       	ldd	r25, Y+3	; 0x03
     164:	14 96       	adiw	r26, 0x04	; 4
     166:	ad 90       	ld	r10, X+
     168:	bd 90       	ld	r11, X+
     16a:	cd 90       	ld	r12, X+
     16c:	dc 90       	ld	r13, X
     16e:	17 97       	sbiw	r26, 0x07	; 7
     170:	ec 80       	ldd	r14, Y+4	; 0x04
     172:	fd 80       	ldd	r15, Y+5	; 0x05
     174:	0e 81       	ldd	r16, Y+6	; 0x06
     176:	1f 81       	ldd	r17, Y+7	; 0x07
     178:	91 01       	movw	r18, r2
     17a:	28 1b       	sub	r18, r24
     17c:	39 0b       	sbc	r19, r25
     17e:	b9 01       	movw	r22, r18
     180:	37 ff       	sbrs	r19, 7
     182:	04 c0       	rjmp	.+8      	; 0x18c <_fpadd_parts+0xb2>
     184:	66 27       	eor	r22, r22
     186:	77 27       	eor	r23, r23
     188:	62 1b       	sub	r22, r18
     18a:	73 0b       	sbc	r23, r19
     18c:	60 32       	cpi	r22, 0x20	; 32
     18e:	71 05       	cpc	r23, r1
     190:	0c f0       	brlt	.+2      	; 0x194 <_fpadd_parts+0xba>
     192:	61 c0       	rjmp	.+194    	; 0x256 <_fpadd_parts+0x17c>
     194:	12 16       	cp	r1, r18
     196:	13 06       	cpc	r1, r19
     198:	6c f5       	brge	.+90     	; 0x1f4 <_fpadd_parts+0x11a>
     19a:	37 01       	movw	r6, r14
     19c:	48 01       	movw	r8, r16
     19e:	06 2e       	mov	r0, r22
     1a0:	04 c0       	rjmp	.+8      	; 0x1aa <_fpadd_parts+0xd0>
     1a2:	96 94       	lsr	r9
     1a4:	87 94       	ror	r8
     1a6:	77 94       	ror	r7
     1a8:	67 94       	ror	r6
     1aa:	0a 94       	dec	r0
     1ac:	d2 f7       	brpl	.-12     	; 0x1a2 <_fpadd_parts+0xc8>
     1ae:	21 e0       	ldi	r18, 0x01	; 1
     1b0:	30 e0       	ldi	r19, 0x00	; 0
     1b2:	40 e0       	ldi	r20, 0x00	; 0
     1b4:	50 e0       	ldi	r21, 0x00	; 0
     1b6:	04 c0       	rjmp	.+8      	; 0x1c0 <_fpadd_parts+0xe6>
     1b8:	22 0f       	add	r18, r18
     1ba:	33 1f       	adc	r19, r19
     1bc:	44 1f       	adc	r20, r20
     1be:	55 1f       	adc	r21, r21
     1c0:	6a 95       	dec	r22
     1c2:	d2 f7       	brpl	.-12     	; 0x1b8 <_fpadd_parts+0xde>
     1c4:	21 50       	subi	r18, 0x01	; 1
     1c6:	30 40       	sbci	r19, 0x00	; 0
     1c8:	40 40       	sbci	r20, 0x00	; 0
     1ca:	50 40       	sbci	r21, 0x00	; 0
     1cc:	2e 21       	and	r18, r14
     1ce:	3f 21       	and	r19, r15
     1d0:	40 23       	and	r20, r16
     1d2:	51 23       	and	r21, r17
     1d4:	21 15       	cp	r18, r1
     1d6:	31 05       	cpc	r19, r1
     1d8:	41 05       	cpc	r20, r1
     1da:	51 05       	cpc	r21, r1
     1dc:	21 f0       	breq	.+8      	; 0x1e6 <_fpadd_parts+0x10c>
     1de:	21 e0       	ldi	r18, 0x01	; 1
     1e0:	30 e0       	ldi	r19, 0x00	; 0
     1e2:	40 e0       	ldi	r20, 0x00	; 0
     1e4:	50 e0       	ldi	r21, 0x00	; 0
     1e6:	79 01       	movw	r14, r18
     1e8:	8a 01       	movw	r16, r20
     1ea:	e6 28       	or	r14, r6
     1ec:	f7 28       	or	r15, r7
     1ee:	08 29       	or	r16, r8
     1f0:	19 29       	or	r17, r9
     1f2:	3c c0       	rjmp	.+120    	; 0x26c <_fpadd_parts+0x192>
     1f4:	23 2b       	or	r18, r19
     1f6:	d1 f1       	breq	.+116    	; 0x26c <_fpadd_parts+0x192>
     1f8:	26 0e       	add	r2, r22
     1fa:	37 1e       	adc	r3, r23
     1fc:	35 01       	movw	r6, r10
     1fe:	46 01       	movw	r8, r12
     200:	06 2e       	mov	r0, r22
     202:	04 c0       	rjmp	.+8      	; 0x20c <_fpadd_parts+0x132>
     204:	96 94       	lsr	r9
     206:	87 94       	ror	r8
     208:	77 94       	ror	r7
     20a:	67 94       	ror	r6
     20c:	0a 94       	dec	r0
     20e:	d2 f7       	brpl	.-12     	; 0x204 <_fpadd_parts+0x12a>
     210:	21 e0       	ldi	r18, 0x01	; 1
     212:	30 e0       	ldi	r19, 0x00	; 0
     214:	40 e0       	ldi	r20, 0x00	; 0
     216:	50 e0       	ldi	r21, 0x00	; 0
     218:	04 c0       	rjmp	.+8      	; 0x222 <_fpadd_parts+0x148>
     21a:	22 0f       	add	r18, r18
     21c:	33 1f       	adc	r19, r19
     21e:	44 1f       	adc	r20, r20
     220:	55 1f       	adc	r21, r21
     222:	6a 95       	dec	r22
     224:	d2 f7       	brpl	.-12     	; 0x21a <_fpadd_parts+0x140>
     226:	21 50       	subi	r18, 0x01	; 1
     228:	30 40       	sbci	r19, 0x00	; 0
     22a:	40 40       	sbci	r20, 0x00	; 0
     22c:	50 40       	sbci	r21, 0x00	; 0
     22e:	2a 21       	and	r18, r10
     230:	3b 21       	and	r19, r11
     232:	4c 21       	and	r20, r12
     234:	5d 21       	and	r21, r13
     236:	21 15       	cp	r18, r1
     238:	31 05       	cpc	r19, r1
     23a:	41 05       	cpc	r20, r1
     23c:	51 05       	cpc	r21, r1
     23e:	21 f0       	breq	.+8      	; 0x248 <_fpadd_parts+0x16e>
     240:	21 e0       	ldi	r18, 0x01	; 1
     242:	30 e0       	ldi	r19, 0x00	; 0
     244:	40 e0       	ldi	r20, 0x00	; 0
     246:	50 e0       	ldi	r21, 0x00	; 0
     248:	59 01       	movw	r10, r18
     24a:	6a 01       	movw	r12, r20
     24c:	a6 28       	or	r10, r6
     24e:	b7 28       	or	r11, r7
     250:	c8 28       	or	r12, r8
     252:	d9 28       	or	r13, r9
     254:	0b c0       	rjmp	.+22     	; 0x26c <_fpadd_parts+0x192>
     256:	82 15       	cp	r24, r2
     258:	93 05       	cpc	r25, r3
     25a:	2c f0       	brlt	.+10     	; 0x266 <_fpadd_parts+0x18c>
     25c:	1c 01       	movw	r2, r24
     25e:	aa 24       	eor	r10, r10
     260:	bb 24       	eor	r11, r11
     262:	65 01       	movw	r12, r10
     264:	03 c0       	rjmp	.+6      	; 0x26c <_fpadd_parts+0x192>
     266:	ee 24       	eor	r14, r14
     268:	ff 24       	eor	r15, r15
     26a:	87 01       	movw	r16, r14
     26c:	11 96       	adiw	r26, 0x01	; 1
     26e:	9c 91       	ld	r25, X
     270:	d2 01       	movw	r26, r4
     272:	11 96       	adiw	r26, 0x01	; 1
     274:	8c 91       	ld	r24, X
     276:	98 17       	cp	r25, r24
     278:	09 f4       	brne	.+2      	; 0x27c <_fpadd_parts+0x1a2>
     27a:	45 c0       	rjmp	.+138    	; 0x306 <_fpadd_parts+0x22c>
     27c:	99 23       	and	r25, r25
     27e:	39 f0       	breq	.+14     	; 0x28e <_fpadd_parts+0x1b4>
     280:	a8 01       	movw	r20, r16
     282:	97 01       	movw	r18, r14
     284:	2a 19       	sub	r18, r10
     286:	3b 09       	sbc	r19, r11
     288:	4c 09       	sbc	r20, r12
     28a:	5d 09       	sbc	r21, r13
     28c:	06 c0       	rjmp	.+12     	; 0x29a <_fpadd_parts+0x1c0>
     28e:	a6 01       	movw	r20, r12
     290:	95 01       	movw	r18, r10
     292:	2e 19       	sub	r18, r14
     294:	3f 09       	sbc	r19, r15
     296:	40 0b       	sbc	r20, r16
     298:	51 0b       	sbc	r21, r17
     29a:	57 fd       	sbrc	r21, 7
     29c:	08 c0       	rjmp	.+16     	; 0x2ae <_fpadd_parts+0x1d4>
     29e:	11 82       	std	Z+1, r1	; 0x01
     2a0:	33 82       	std	Z+3, r3	; 0x03
     2a2:	22 82       	std	Z+2, r2	; 0x02
     2a4:	24 83       	std	Z+4, r18	; 0x04
     2a6:	35 83       	std	Z+5, r19	; 0x05
     2a8:	46 83       	std	Z+6, r20	; 0x06
     2aa:	57 83       	std	Z+7, r21	; 0x07
     2ac:	1d c0       	rjmp	.+58     	; 0x2e8 <_fpadd_parts+0x20e>
     2ae:	81 e0       	ldi	r24, 0x01	; 1
     2b0:	81 83       	std	Z+1, r24	; 0x01
     2b2:	33 82       	std	Z+3, r3	; 0x03
     2b4:	22 82       	std	Z+2, r2	; 0x02
     2b6:	88 27       	eor	r24, r24
     2b8:	99 27       	eor	r25, r25
     2ba:	dc 01       	movw	r26, r24
     2bc:	82 1b       	sub	r24, r18
     2be:	93 0b       	sbc	r25, r19
     2c0:	a4 0b       	sbc	r26, r20
     2c2:	b5 0b       	sbc	r27, r21
     2c4:	84 83       	std	Z+4, r24	; 0x04
     2c6:	95 83       	std	Z+5, r25	; 0x05
     2c8:	a6 83       	std	Z+6, r26	; 0x06
     2ca:	b7 83       	std	Z+7, r27	; 0x07
     2cc:	0d c0       	rjmp	.+26     	; 0x2e8 <_fpadd_parts+0x20e>
     2ce:	22 0f       	add	r18, r18
     2d0:	33 1f       	adc	r19, r19
     2d2:	44 1f       	adc	r20, r20
     2d4:	55 1f       	adc	r21, r21
     2d6:	24 83       	std	Z+4, r18	; 0x04
     2d8:	35 83       	std	Z+5, r19	; 0x05
     2da:	46 83       	std	Z+6, r20	; 0x06
     2dc:	57 83       	std	Z+7, r21	; 0x07
     2de:	82 81       	ldd	r24, Z+2	; 0x02
     2e0:	93 81       	ldd	r25, Z+3	; 0x03
     2e2:	01 97       	sbiw	r24, 0x01	; 1
     2e4:	93 83       	std	Z+3, r25	; 0x03
     2e6:	82 83       	std	Z+2, r24	; 0x02
     2e8:	24 81       	ldd	r18, Z+4	; 0x04
     2ea:	35 81       	ldd	r19, Z+5	; 0x05
     2ec:	46 81       	ldd	r20, Z+6	; 0x06
     2ee:	57 81       	ldd	r21, Z+7	; 0x07
     2f0:	da 01       	movw	r26, r20
     2f2:	c9 01       	movw	r24, r18
     2f4:	01 97       	sbiw	r24, 0x01	; 1
     2f6:	a1 09       	sbc	r26, r1
     2f8:	b1 09       	sbc	r27, r1
     2fa:	8f 5f       	subi	r24, 0xFF	; 255
     2fc:	9f 4f       	sbci	r25, 0xFF	; 255
     2fe:	af 4f       	sbci	r26, 0xFF	; 255
     300:	bf 43       	sbci	r27, 0x3F	; 63
     302:	28 f3       	brcs	.-54     	; 0x2ce <_fpadd_parts+0x1f4>
     304:	0b c0       	rjmp	.+22     	; 0x31c <_fpadd_parts+0x242>
     306:	91 83       	std	Z+1, r25	; 0x01
     308:	33 82       	std	Z+3, r3	; 0x03
     30a:	22 82       	std	Z+2, r2	; 0x02
     30c:	ea 0c       	add	r14, r10
     30e:	fb 1c       	adc	r15, r11
     310:	0c 1d       	adc	r16, r12
     312:	1d 1d       	adc	r17, r13
     314:	e4 82       	std	Z+4, r14	; 0x04
     316:	f5 82       	std	Z+5, r15	; 0x05
     318:	06 83       	std	Z+6, r16	; 0x06
     31a:	17 83       	std	Z+7, r17	; 0x07
     31c:	83 e0       	ldi	r24, 0x03	; 3
     31e:	80 83       	st	Z, r24
     320:	24 81       	ldd	r18, Z+4	; 0x04
     322:	35 81       	ldd	r19, Z+5	; 0x05
     324:	46 81       	ldd	r20, Z+6	; 0x06
     326:	57 81       	ldd	r21, Z+7	; 0x07
     328:	57 ff       	sbrs	r21, 7
     32a:	1a c0       	rjmp	.+52     	; 0x360 <_fpadd_parts+0x286>
     32c:	c9 01       	movw	r24, r18
     32e:	aa 27       	eor	r26, r26
     330:	97 fd       	sbrc	r25, 7
     332:	a0 95       	com	r26
     334:	ba 2f       	mov	r27, r26
     336:	81 70       	andi	r24, 0x01	; 1
     338:	90 70       	andi	r25, 0x00	; 0
     33a:	a0 70       	andi	r26, 0x00	; 0
     33c:	b0 70       	andi	r27, 0x00	; 0
     33e:	56 95       	lsr	r21
     340:	47 95       	ror	r20
     342:	37 95       	ror	r19
     344:	27 95       	ror	r18
     346:	82 2b       	or	r24, r18
     348:	93 2b       	or	r25, r19
     34a:	a4 2b       	or	r26, r20
     34c:	b5 2b       	or	r27, r21
     34e:	84 83       	std	Z+4, r24	; 0x04
     350:	95 83       	std	Z+5, r25	; 0x05
     352:	a6 83       	std	Z+6, r26	; 0x06
     354:	b7 83       	std	Z+7, r27	; 0x07
     356:	82 81       	ldd	r24, Z+2	; 0x02
     358:	93 81       	ldd	r25, Z+3	; 0x03
     35a:	01 96       	adiw	r24, 0x01	; 1
     35c:	93 83       	std	Z+3, r25	; 0x03
     35e:	82 83       	std	Z+2, r24	; 0x02
     360:	df 01       	movw	r26, r30
     362:	01 c0       	rjmp	.+2      	; 0x366 <_fpadd_parts+0x28c>
     364:	d2 01       	movw	r26, r4
     366:	cd 01       	movw	r24, r26
     368:	cd b7       	in	r28, 0x3d	; 61
     36a:	de b7       	in	r29, 0x3e	; 62
     36c:	e2 e1       	ldi	r30, 0x12	; 18
     36e:	0c 94 18 10 	jmp	0x2030	; 0x2030 <__epilogue_restores__>

00000372 <__subsf3>:
     372:	a0 e2       	ldi	r26, 0x20	; 32
     374:	b0 e0       	ldi	r27, 0x00	; 0
     376:	ef eb       	ldi	r30, 0xBF	; 191
     378:	f1 e0       	ldi	r31, 0x01	; 1
     37a:	0c 94 08 10 	jmp	0x2010	; 0x2010 <__prologue_saves__+0x18>
     37e:	69 83       	std	Y+1, r22	; 0x01
     380:	7a 83       	std	Y+2, r23	; 0x02
     382:	8b 83       	std	Y+3, r24	; 0x03
     384:	9c 83       	std	Y+4, r25	; 0x04
     386:	2d 83       	std	Y+5, r18	; 0x05
     388:	3e 83       	std	Y+6, r19	; 0x06
     38a:	4f 83       	std	Y+7, r20	; 0x07
     38c:	58 87       	std	Y+8, r21	; 0x08
     38e:	e9 e0       	ldi	r30, 0x09	; 9
     390:	ee 2e       	mov	r14, r30
     392:	f1 2c       	mov	r15, r1
     394:	ec 0e       	add	r14, r28
     396:	fd 1e       	adc	r15, r29
     398:	ce 01       	movw	r24, r28
     39a:	01 96       	adiw	r24, 0x01	; 1
     39c:	b7 01       	movw	r22, r14
     39e:	0e 94 ca 04 	call	0x994	; 0x994 <__unpack_f>
     3a2:	8e 01       	movw	r16, r28
     3a4:	0f 5e       	subi	r16, 0xEF	; 239
     3a6:	1f 4f       	sbci	r17, 0xFF	; 255
     3a8:	ce 01       	movw	r24, r28
     3aa:	05 96       	adiw	r24, 0x05	; 5
     3ac:	b8 01       	movw	r22, r16
     3ae:	0e 94 ca 04 	call	0x994	; 0x994 <__unpack_f>
     3b2:	8a 89       	ldd	r24, Y+18	; 0x12
     3b4:	91 e0       	ldi	r25, 0x01	; 1
     3b6:	89 27       	eor	r24, r25
     3b8:	8a 8b       	std	Y+18, r24	; 0x12
     3ba:	c7 01       	movw	r24, r14
     3bc:	b8 01       	movw	r22, r16
     3be:	ae 01       	movw	r20, r28
     3c0:	47 5e       	subi	r20, 0xE7	; 231
     3c2:	5f 4f       	sbci	r21, 0xFF	; 255
     3c4:	0e 94 6d 00 	call	0xda	; 0xda <_fpadd_parts>
     3c8:	0e 94 f5 03 	call	0x7ea	; 0x7ea <__pack_f>
     3cc:	a0 96       	adiw	r28, 0x20	; 32
     3ce:	e6 e0       	ldi	r30, 0x06	; 6
     3d0:	0c 94 24 10 	jmp	0x2048	; 0x2048 <__epilogue_restores__+0x18>

000003d4 <__addsf3>:
     3d4:	a0 e2       	ldi	r26, 0x20	; 32
     3d6:	b0 e0       	ldi	r27, 0x00	; 0
     3d8:	e0 ef       	ldi	r30, 0xF0	; 240
     3da:	f1 e0       	ldi	r31, 0x01	; 1
     3dc:	0c 94 08 10 	jmp	0x2010	; 0x2010 <__prologue_saves__+0x18>
     3e0:	69 83       	std	Y+1, r22	; 0x01
     3e2:	7a 83       	std	Y+2, r23	; 0x02
     3e4:	8b 83       	std	Y+3, r24	; 0x03
     3e6:	9c 83       	std	Y+4, r25	; 0x04
     3e8:	2d 83       	std	Y+5, r18	; 0x05
     3ea:	3e 83       	std	Y+6, r19	; 0x06
     3ec:	4f 83       	std	Y+7, r20	; 0x07
     3ee:	58 87       	std	Y+8, r21	; 0x08
     3f0:	f9 e0       	ldi	r31, 0x09	; 9
     3f2:	ef 2e       	mov	r14, r31
     3f4:	f1 2c       	mov	r15, r1
     3f6:	ec 0e       	add	r14, r28
     3f8:	fd 1e       	adc	r15, r29
     3fa:	ce 01       	movw	r24, r28
     3fc:	01 96       	adiw	r24, 0x01	; 1
     3fe:	b7 01       	movw	r22, r14
     400:	0e 94 ca 04 	call	0x994	; 0x994 <__unpack_f>
     404:	8e 01       	movw	r16, r28
     406:	0f 5e       	subi	r16, 0xEF	; 239
     408:	1f 4f       	sbci	r17, 0xFF	; 255
     40a:	ce 01       	movw	r24, r28
     40c:	05 96       	adiw	r24, 0x05	; 5
     40e:	b8 01       	movw	r22, r16
     410:	0e 94 ca 04 	call	0x994	; 0x994 <__unpack_f>
     414:	c7 01       	movw	r24, r14
     416:	b8 01       	movw	r22, r16
     418:	ae 01       	movw	r20, r28
     41a:	47 5e       	subi	r20, 0xE7	; 231
     41c:	5f 4f       	sbci	r21, 0xFF	; 255
     41e:	0e 94 6d 00 	call	0xda	; 0xda <_fpadd_parts>
     422:	0e 94 f5 03 	call	0x7ea	; 0x7ea <__pack_f>
     426:	a0 96       	adiw	r28, 0x20	; 32
     428:	e6 e0       	ldi	r30, 0x06	; 6
     42a:	0c 94 24 10 	jmp	0x2048	; 0x2048 <__epilogue_restores__+0x18>

0000042e <__mulsf3>:
     42e:	a0 e2       	ldi	r26, 0x20	; 32
     430:	b0 e0       	ldi	r27, 0x00	; 0
     432:	ed e1       	ldi	r30, 0x1D	; 29
     434:	f2 e0       	ldi	r31, 0x02	; 2
     436:	0c 94 fc 0f 	jmp	0x1ff8	; 0x1ff8 <__prologue_saves__>
     43a:	69 83       	std	Y+1, r22	; 0x01
     43c:	7a 83       	std	Y+2, r23	; 0x02
     43e:	8b 83       	std	Y+3, r24	; 0x03
     440:	9c 83       	std	Y+4, r25	; 0x04
     442:	2d 83       	std	Y+5, r18	; 0x05
     444:	3e 83       	std	Y+6, r19	; 0x06
     446:	4f 83       	std	Y+7, r20	; 0x07
     448:	58 87       	std	Y+8, r21	; 0x08
     44a:	ce 01       	movw	r24, r28
     44c:	01 96       	adiw	r24, 0x01	; 1
     44e:	be 01       	movw	r22, r28
     450:	67 5f       	subi	r22, 0xF7	; 247
     452:	7f 4f       	sbci	r23, 0xFF	; 255
     454:	0e 94 ca 04 	call	0x994	; 0x994 <__unpack_f>
     458:	ce 01       	movw	r24, r28
     45a:	05 96       	adiw	r24, 0x05	; 5
     45c:	be 01       	movw	r22, r28
     45e:	6f 5e       	subi	r22, 0xEF	; 239
     460:	7f 4f       	sbci	r23, 0xFF	; 255
     462:	0e 94 ca 04 	call	0x994	; 0x994 <__unpack_f>
     466:	99 85       	ldd	r25, Y+9	; 0x09
     468:	92 30       	cpi	r25, 0x02	; 2
     46a:	88 f0       	brcs	.+34     	; 0x48e <__mulsf3+0x60>
     46c:	89 89       	ldd	r24, Y+17	; 0x11
     46e:	82 30       	cpi	r24, 0x02	; 2
     470:	c8 f0       	brcs	.+50     	; 0x4a4 <__mulsf3+0x76>
     472:	94 30       	cpi	r25, 0x04	; 4
     474:	19 f4       	brne	.+6      	; 0x47c <__mulsf3+0x4e>
     476:	82 30       	cpi	r24, 0x02	; 2
     478:	51 f4       	brne	.+20     	; 0x48e <__mulsf3+0x60>
     47a:	04 c0       	rjmp	.+8      	; 0x484 <__mulsf3+0x56>
     47c:	84 30       	cpi	r24, 0x04	; 4
     47e:	29 f4       	brne	.+10     	; 0x48a <__mulsf3+0x5c>
     480:	92 30       	cpi	r25, 0x02	; 2
     482:	81 f4       	brne	.+32     	; 0x4a4 <__mulsf3+0x76>
     484:	80 e6       	ldi	r24, 0x60	; 96
     486:	90 e0       	ldi	r25, 0x00	; 0
     488:	c6 c0       	rjmp	.+396    	; 0x616 <__mulsf3+0x1e8>
     48a:	92 30       	cpi	r25, 0x02	; 2
     48c:	49 f4       	brne	.+18     	; 0x4a0 <__mulsf3+0x72>
     48e:	20 e0       	ldi	r18, 0x00	; 0
     490:	9a 85       	ldd	r25, Y+10	; 0x0a
     492:	8a 89       	ldd	r24, Y+18	; 0x12
     494:	98 13       	cpse	r25, r24
     496:	21 e0       	ldi	r18, 0x01	; 1
     498:	2a 87       	std	Y+10, r18	; 0x0a
     49a:	ce 01       	movw	r24, r28
     49c:	09 96       	adiw	r24, 0x09	; 9
     49e:	bb c0       	rjmp	.+374    	; 0x616 <__mulsf3+0x1e8>
     4a0:	82 30       	cpi	r24, 0x02	; 2
     4a2:	49 f4       	brne	.+18     	; 0x4b6 <__mulsf3+0x88>
     4a4:	20 e0       	ldi	r18, 0x00	; 0
     4a6:	9a 85       	ldd	r25, Y+10	; 0x0a
     4a8:	8a 89       	ldd	r24, Y+18	; 0x12
     4aa:	98 13       	cpse	r25, r24
     4ac:	21 e0       	ldi	r18, 0x01	; 1
     4ae:	2a 8b       	std	Y+18, r18	; 0x12
     4b0:	ce 01       	movw	r24, r28
     4b2:	41 96       	adiw	r24, 0x11	; 17
     4b4:	b0 c0       	rjmp	.+352    	; 0x616 <__mulsf3+0x1e8>
     4b6:	2d 84       	ldd	r2, Y+13	; 0x0d
     4b8:	3e 84       	ldd	r3, Y+14	; 0x0e
     4ba:	4f 84       	ldd	r4, Y+15	; 0x0f
     4bc:	58 88       	ldd	r5, Y+16	; 0x10
     4be:	6d 88       	ldd	r6, Y+21	; 0x15
     4c0:	7e 88       	ldd	r7, Y+22	; 0x16
     4c2:	8f 88       	ldd	r8, Y+23	; 0x17
     4c4:	98 8c       	ldd	r9, Y+24	; 0x18
     4c6:	ee 24       	eor	r14, r14
     4c8:	ff 24       	eor	r15, r15
     4ca:	87 01       	movw	r16, r14
     4cc:	aa 24       	eor	r10, r10
     4ce:	bb 24       	eor	r11, r11
     4d0:	65 01       	movw	r12, r10
     4d2:	40 e0       	ldi	r20, 0x00	; 0
     4d4:	50 e0       	ldi	r21, 0x00	; 0
     4d6:	60 e0       	ldi	r22, 0x00	; 0
     4d8:	70 e0       	ldi	r23, 0x00	; 0
     4da:	e0 e0       	ldi	r30, 0x00	; 0
     4dc:	f0 e0       	ldi	r31, 0x00	; 0
     4de:	c1 01       	movw	r24, r2
     4e0:	81 70       	andi	r24, 0x01	; 1
     4e2:	90 70       	andi	r25, 0x00	; 0
     4e4:	89 2b       	or	r24, r25
     4e6:	e9 f0       	breq	.+58     	; 0x522 <__mulsf3+0xf4>
     4e8:	e6 0c       	add	r14, r6
     4ea:	f7 1c       	adc	r15, r7
     4ec:	08 1d       	adc	r16, r8
     4ee:	19 1d       	adc	r17, r9
     4f0:	9a 01       	movw	r18, r20
     4f2:	ab 01       	movw	r20, r22
     4f4:	2a 0d       	add	r18, r10
     4f6:	3b 1d       	adc	r19, r11
     4f8:	4c 1d       	adc	r20, r12
     4fa:	5d 1d       	adc	r21, r13
     4fc:	80 e0       	ldi	r24, 0x00	; 0
     4fe:	90 e0       	ldi	r25, 0x00	; 0
     500:	a0 e0       	ldi	r26, 0x00	; 0
     502:	b0 e0       	ldi	r27, 0x00	; 0
     504:	e6 14       	cp	r14, r6
     506:	f7 04       	cpc	r15, r7
     508:	08 05       	cpc	r16, r8
     50a:	19 05       	cpc	r17, r9
     50c:	20 f4       	brcc	.+8      	; 0x516 <__mulsf3+0xe8>
     50e:	81 e0       	ldi	r24, 0x01	; 1
     510:	90 e0       	ldi	r25, 0x00	; 0
     512:	a0 e0       	ldi	r26, 0x00	; 0
     514:	b0 e0       	ldi	r27, 0x00	; 0
     516:	ba 01       	movw	r22, r20
     518:	a9 01       	movw	r20, r18
     51a:	48 0f       	add	r20, r24
     51c:	59 1f       	adc	r21, r25
     51e:	6a 1f       	adc	r22, r26
     520:	7b 1f       	adc	r23, r27
     522:	aa 0c       	add	r10, r10
     524:	bb 1c       	adc	r11, r11
     526:	cc 1c       	adc	r12, r12
     528:	dd 1c       	adc	r13, r13
     52a:	97 fe       	sbrs	r9, 7
     52c:	08 c0       	rjmp	.+16     	; 0x53e <__mulsf3+0x110>
     52e:	81 e0       	ldi	r24, 0x01	; 1
     530:	90 e0       	ldi	r25, 0x00	; 0
     532:	a0 e0       	ldi	r26, 0x00	; 0
     534:	b0 e0       	ldi	r27, 0x00	; 0
     536:	a8 2a       	or	r10, r24
     538:	b9 2a       	or	r11, r25
     53a:	ca 2a       	or	r12, r26
     53c:	db 2a       	or	r13, r27
     53e:	31 96       	adiw	r30, 0x01	; 1
     540:	e0 32       	cpi	r30, 0x20	; 32
     542:	f1 05       	cpc	r31, r1
     544:	49 f0       	breq	.+18     	; 0x558 <__mulsf3+0x12a>
     546:	66 0c       	add	r6, r6
     548:	77 1c       	adc	r7, r7
     54a:	88 1c       	adc	r8, r8
     54c:	99 1c       	adc	r9, r9
     54e:	56 94       	lsr	r5
     550:	47 94       	ror	r4
     552:	37 94       	ror	r3
     554:	27 94       	ror	r2
     556:	c3 cf       	rjmp	.-122    	; 0x4de <__mulsf3+0xb0>
     558:	fa 85       	ldd	r31, Y+10	; 0x0a
     55a:	ea 89       	ldd	r30, Y+18	; 0x12
     55c:	2b 89       	ldd	r18, Y+19	; 0x13
     55e:	3c 89       	ldd	r19, Y+20	; 0x14
     560:	8b 85       	ldd	r24, Y+11	; 0x0b
     562:	9c 85       	ldd	r25, Y+12	; 0x0c
     564:	28 0f       	add	r18, r24
     566:	39 1f       	adc	r19, r25
     568:	2e 5f       	subi	r18, 0xFE	; 254
     56a:	3f 4f       	sbci	r19, 0xFF	; 255
     56c:	17 c0       	rjmp	.+46     	; 0x59c <__mulsf3+0x16e>
     56e:	ca 01       	movw	r24, r20
     570:	81 70       	andi	r24, 0x01	; 1
     572:	90 70       	andi	r25, 0x00	; 0
     574:	89 2b       	or	r24, r25
     576:	61 f0       	breq	.+24     	; 0x590 <__mulsf3+0x162>
     578:	16 95       	lsr	r17
     57a:	07 95       	ror	r16
     57c:	f7 94       	ror	r15
     57e:	e7 94       	ror	r14
     580:	80 e0       	ldi	r24, 0x00	; 0
     582:	90 e0       	ldi	r25, 0x00	; 0
     584:	a0 e0       	ldi	r26, 0x00	; 0
     586:	b0 e8       	ldi	r27, 0x80	; 128
     588:	e8 2a       	or	r14, r24
     58a:	f9 2a       	or	r15, r25
     58c:	0a 2b       	or	r16, r26
     58e:	1b 2b       	or	r17, r27
     590:	76 95       	lsr	r23
     592:	67 95       	ror	r22
     594:	57 95       	ror	r21
     596:	47 95       	ror	r20
     598:	2f 5f       	subi	r18, 0xFF	; 255
     59a:	3f 4f       	sbci	r19, 0xFF	; 255
     59c:	77 fd       	sbrc	r23, 7
     59e:	e7 cf       	rjmp	.-50     	; 0x56e <__mulsf3+0x140>
     5a0:	0c c0       	rjmp	.+24     	; 0x5ba <__mulsf3+0x18c>
     5a2:	44 0f       	add	r20, r20
     5a4:	55 1f       	adc	r21, r21
     5a6:	66 1f       	adc	r22, r22
     5a8:	77 1f       	adc	r23, r23
     5aa:	17 fd       	sbrc	r17, 7
     5ac:	41 60       	ori	r20, 0x01	; 1
     5ae:	ee 0c       	add	r14, r14
     5b0:	ff 1c       	adc	r15, r15
     5b2:	00 1f       	adc	r16, r16
     5b4:	11 1f       	adc	r17, r17
     5b6:	21 50       	subi	r18, 0x01	; 1
     5b8:	30 40       	sbci	r19, 0x00	; 0
     5ba:	40 30       	cpi	r20, 0x00	; 0
     5bc:	90 e0       	ldi	r25, 0x00	; 0
     5be:	59 07       	cpc	r21, r25
     5c0:	90 e0       	ldi	r25, 0x00	; 0
     5c2:	69 07       	cpc	r22, r25
     5c4:	90 e4       	ldi	r25, 0x40	; 64
     5c6:	79 07       	cpc	r23, r25
     5c8:	60 f3       	brcs	.-40     	; 0x5a2 <__mulsf3+0x174>
     5ca:	2b 8f       	std	Y+27, r18	; 0x1b
     5cc:	3c 8f       	std	Y+28, r19	; 0x1c
     5ce:	db 01       	movw	r26, r22
     5d0:	ca 01       	movw	r24, r20
     5d2:	8f 77       	andi	r24, 0x7F	; 127
     5d4:	90 70       	andi	r25, 0x00	; 0
     5d6:	a0 70       	andi	r26, 0x00	; 0
     5d8:	b0 70       	andi	r27, 0x00	; 0
     5da:	80 34       	cpi	r24, 0x40	; 64
     5dc:	91 05       	cpc	r25, r1
     5de:	a1 05       	cpc	r26, r1
     5e0:	b1 05       	cpc	r27, r1
     5e2:	61 f4       	brne	.+24     	; 0x5fc <__mulsf3+0x1ce>
     5e4:	47 fd       	sbrc	r20, 7
     5e6:	0a c0       	rjmp	.+20     	; 0x5fc <__mulsf3+0x1ce>
     5e8:	e1 14       	cp	r14, r1
     5ea:	f1 04       	cpc	r15, r1
     5ec:	01 05       	cpc	r16, r1
     5ee:	11 05       	cpc	r17, r1
     5f0:	29 f0       	breq	.+10     	; 0x5fc <__mulsf3+0x1ce>
     5f2:	40 5c       	subi	r20, 0xC0	; 192
     5f4:	5f 4f       	sbci	r21, 0xFF	; 255
     5f6:	6f 4f       	sbci	r22, 0xFF	; 255
     5f8:	7f 4f       	sbci	r23, 0xFF	; 255
     5fa:	40 78       	andi	r20, 0x80	; 128
     5fc:	1a 8e       	std	Y+26, r1	; 0x1a
     5fe:	fe 17       	cp	r31, r30
     600:	11 f0       	breq	.+4      	; 0x606 <__mulsf3+0x1d8>
     602:	81 e0       	ldi	r24, 0x01	; 1
     604:	8a 8f       	std	Y+26, r24	; 0x1a
     606:	4d 8f       	std	Y+29, r20	; 0x1d
     608:	5e 8f       	std	Y+30, r21	; 0x1e
     60a:	6f 8f       	std	Y+31, r22	; 0x1f
     60c:	78 a3       	std	Y+32, r23	; 0x20
     60e:	83 e0       	ldi	r24, 0x03	; 3
     610:	89 8f       	std	Y+25, r24	; 0x19
     612:	ce 01       	movw	r24, r28
     614:	49 96       	adiw	r24, 0x19	; 25
     616:	0e 94 f5 03 	call	0x7ea	; 0x7ea <__pack_f>
     61a:	a0 96       	adiw	r28, 0x20	; 32
     61c:	e2 e1       	ldi	r30, 0x12	; 18
     61e:	0c 94 18 10 	jmp	0x2030	; 0x2030 <__epilogue_restores__>

00000622 <__gtsf2>:
     622:	a8 e1       	ldi	r26, 0x18	; 24
     624:	b0 e0       	ldi	r27, 0x00	; 0
     626:	e7 e1       	ldi	r30, 0x17	; 23
     628:	f3 e0       	ldi	r31, 0x03	; 3
     62a:	0c 94 08 10 	jmp	0x2010	; 0x2010 <__prologue_saves__+0x18>
     62e:	69 83       	std	Y+1, r22	; 0x01
     630:	7a 83       	std	Y+2, r23	; 0x02
     632:	8b 83       	std	Y+3, r24	; 0x03
     634:	9c 83       	std	Y+4, r25	; 0x04
     636:	2d 83       	std	Y+5, r18	; 0x05
     638:	3e 83       	std	Y+6, r19	; 0x06
     63a:	4f 83       	std	Y+7, r20	; 0x07
     63c:	58 87       	std	Y+8, r21	; 0x08
     63e:	89 e0       	ldi	r24, 0x09	; 9
     640:	e8 2e       	mov	r14, r24
     642:	f1 2c       	mov	r15, r1
     644:	ec 0e       	add	r14, r28
     646:	fd 1e       	adc	r15, r29
     648:	ce 01       	movw	r24, r28
     64a:	01 96       	adiw	r24, 0x01	; 1
     64c:	b7 01       	movw	r22, r14
     64e:	0e 94 ca 04 	call	0x994	; 0x994 <__unpack_f>
     652:	8e 01       	movw	r16, r28
     654:	0f 5e       	subi	r16, 0xEF	; 239
     656:	1f 4f       	sbci	r17, 0xFF	; 255
     658:	ce 01       	movw	r24, r28
     65a:	05 96       	adiw	r24, 0x05	; 5
     65c:	b8 01       	movw	r22, r16
     65e:	0e 94 ca 04 	call	0x994	; 0x994 <__unpack_f>
     662:	89 85       	ldd	r24, Y+9	; 0x09
     664:	82 30       	cpi	r24, 0x02	; 2
     666:	40 f0       	brcs	.+16     	; 0x678 <__gtsf2+0x56>
     668:	89 89       	ldd	r24, Y+17	; 0x11
     66a:	82 30       	cpi	r24, 0x02	; 2
     66c:	28 f0       	brcs	.+10     	; 0x678 <__gtsf2+0x56>
     66e:	c7 01       	movw	r24, r14
     670:	b8 01       	movw	r22, r16
     672:	0e 94 42 05 	call	0xa84	; 0xa84 <__fpcmp_parts_f>
     676:	01 c0       	rjmp	.+2      	; 0x67a <__gtsf2+0x58>
     678:	8f ef       	ldi	r24, 0xFF	; 255
     67a:	68 96       	adiw	r28, 0x18	; 24
     67c:	e6 e0       	ldi	r30, 0x06	; 6
     67e:	0c 94 24 10 	jmp	0x2048	; 0x2048 <__epilogue_restores__+0x18>

00000682 <__gesf2>:
     682:	a8 e1       	ldi	r26, 0x18	; 24
     684:	b0 e0       	ldi	r27, 0x00	; 0
     686:	e7 e4       	ldi	r30, 0x47	; 71
     688:	f3 e0       	ldi	r31, 0x03	; 3
     68a:	0c 94 08 10 	jmp	0x2010	; 0x2010 <__prologue_saves__+0x18>
     68e:	69 83       	std	Y+1, r22	; 0x01
     690:	7a 83       	std	Y+2, r23	; 0x02
     692:	8b 83       	std	Y+3, r24	; 0x03
     694:	9c 83       	std	Y+4, r25	; 0x04
     696:	2d 83       	std	Y+5, r18	; 0x05
     698:	3e 83       	std	Y+6, r19	; 0x06
     69a:	4f 83       	std	Y+7, r20	; 0x07
     69c:	58 87       	std	Y+8, r21	; 0x08
     69e:	89 e0       	ldi	r24, 0x09	; 9
     6a0:	e8 2e       	mov	r14, r24
     6a2:	f1 2c       	mov	r15, r1
     6a4:	ec 0e       	add	r14, r28
     6a6:	fd 1e       	adc	r15, r29
     6a8:	ce 01       	movw	r24, r28
     6aa:	01 96       	adiw	r24, 0x01	; 1
     6ac:	b7 01       	movw	r22, r14
     6ae:	0e 94 ca 04 	call	0x994	; 0x994 <__unpack_f>
     6b2:	8e 01       	movw	r16, r28
     6b4:	0f 5e       	subi	r16, 0xEF	; 239
     6b6:	1f 4f       	sbci	r17, 0xFF	; 255
     6b8:	ce 01       	movw	r24, r28
     6ba:	05 96       	adiw	r24, 0x05	; 5
     6bc:	b8 01       	movw	r22, r16
     6be:	0e 94 ca 04 	call	0x994	; 0x994 <__unpack_f>
     6c2:	89 85       	ldd	r24, Y+9	; 0x09
     6c4:	82 30       	cpi	r24, 0x02	; 2
     6c6:	40 f0       	brcs	.+16     	; 0x6d8 <__gesf2+0x56>
     6c8:	89 89       	ldd	r24, Y+17	; 0x11
     6ca:	82 30       	cpi	r24, 0x02	; 2
     6cc:	28 f0       	brcs	.+10     	; 0x6d8 <__gesf2+0x56>
     6ce:	c7 01       	movw	r24, r14
     6d0:	b8 01       	movw	r22, r16
     6d2:	0e 94 42 05 	call	0xa84	; 0xa84 <__fpcmp_parts_f>
     6d6:	01 c0       	rjmp	.+2      	; 0x6da <__gesf2+0x58>
     6d8:	8f ef       	ldi	r24, 0xFF	; 255
     6da:	68 96       	adiw	r28, 0x18	; 24
     6dc:	e6 e0       	ldi	r30, 0x06	; 6
     6de:	0c 94 24 10 	jmp	0x2048	; 0x2048 <__epilogue_restores__+0x18>

000006e2 <__ltsf2>:
     6e2:	a8 e1       	ldi	r26, 0x18	; 24
     6e4:	b0 e0       	ldi	r27, 0x00	; 0
     6e6:	e7 e7       	ldi	r30, 0x77	; 119
     6e8:	f3 e0       	ldi	r31, 0x03	; 3
     6ea:	0c 94 08 10 	jmp	0x2010	; 0x2010 <__prologue_saves__+0x18>
     6ee:	69 83       	std	Y+1, r22	; 0x01
     6f0:	7a 83       	std	Y+2, r23	; 0x02
     6f2:	8b 83       	std	Y+3, r24	; 0x03
     6f4:	9c 83       	std	Y+4, r25	; 0x04
     6f6:	2d 83       	std	Y+5, r18	; 0x05
     6f8:	3e 83       	std	Y+6, r19	; 0x06
     6fa:	4f 83       	std	Y+7, r20	; 0x07
     6fc:	58 87       	std	Y+8, r21	; 0x08
     6fe:	89 e0       	ldi	r24, 0x09	; 9
     700:	e8 2e       	mov	r14, r24
     702:	f1 2c       	mov	r15, r1
     704:	ec 0e       	add	r14, r28
     706:	fd 1e       	adc	r15, r29
     708:	ce 01       	movw	r24, r28
     70a:	01 96       	adiw	r24, 0x01	; 1
     70c:	b7 01       	movw	r22, r14
     70e:	0e 94 ca 04 	call	0x994	; 0x994 <__unpack_f>
     712:	8e 01       	movw	r16, r28
     714:	0f 5e       	subi	r16, 0xEF	; 239
     716:	1f 4f       	sbci	r17, 0xFF	; 255
     718:	ce 01       	movw	r24, r28
     71a:	05 96       	adiw	r24, 0x05	; 5
     71c:	b8 01       	movw	r22, r16
     71e:	0e 94 ca 04 	call	0x994	; 0x994 <__unpack_f>
     722:	89 85       	ldd	r24, Y+9	; 0x09
     724:	82 30       	cpi	r24, 0x02	; 2
     726:	40 f0       	brcs	.+16     	; 0x738 <__ltsf2+0x56>
     728:	89 89       	ldd	r24, Y+17	; 0x11
     72a:	82 30       	cpi	r24, 0x02	; 2
     72c:	28 f0       	brcs	.+10     	; 0x738 <__ltsf2+0x56>
     72e:	c7 01       	movw	r24, r14
     730:	b8 01       	movw	r22, r16
     732:	0e 94 42 05 	call	0xa84	; 0xa84 <__fpcmp_parts_f>
     736:	01 c0       	rjmp	.+2      	; 0x73a <__ltsf2+0x58>
     738:	81 e0       	ldi	r24, 0x01	; 1
     73a:	68 96       	adiw	r28, 0x18	; 24
     73c:	e6 e0       	ldi	r30, 0x06	; 6
     73e:	0c 94 24 10 	jmp	0x2048	; 0x2048 <__epilogue_restores__+0x18>

00000742 <__fixsfsi>:
     742:	ac e0       	ldi	r26, 0x0C	; 12
     744:	b0 e0       	ldi	r27, 0x00	; 0
     746:	e7 ea       	ldi	r30, 0xA7	; 167
     748:	f3 e0       	ldi	r31, 0x03	; 3
     74a:	0c 94 0c 10 	jmp	0x2018	; 0x2018 <__prologue_saves__+0x20>
     74e:	69 83       	std	Y+1, r22	; 0x01
     750:	7a 83       	std	Y+2, r23	; 0x02
     752:	8b 83       	std	Y+3, r24	; 0x03
     754:	9c 83       	std	Y+4, r25	; 0x04
     756:	ce 01       	movw	r24, r28
     758:	01 96       	adiw	r24, 0x01	; 1
     75a:	be 01       	movw	r22, r28
     75c:	6b 5f       	subi	r22, 0xFB	; 251
     75e:	7f 4f       	sbci	r23, 0xFF	; 255
     760:	0e 94 ca 04 	call	0x994	; 0x994 <__unpack_f>
     764:	8d 81       	ldd	r24, Y+5	; 0x05
     766:	82 30       	cpi	r24, 0x02	; 2
     768:	61 f1       	breq	.+88     	; 0x7c2 <__fixsfsi+0x80>
     76a:	82 30       	cpi	r24, 0x02	; 2
     76c:	50 f1       	brcs	.+84     	; 0x7c2 <__fixsfsi+0x80>
     76e:	84 30       	cpi	r24, 0x04	; 4
     770:	21 f4       	brne	.+8      	; 0x77a <__fixsfsi+0x38>
     772:	8e 81       	ldd	r24, Y+6	; 0x06
     774:	88 23       	and	r24, r24
     776:	51 f1       	breq	.+84     	; 0x7cc <__fixsfsi+0x8a>
     778:	2e c0       	rjmp	.+92     	; 0x7d6 <__fixsfsi+0x94>
     77a:	2f 81       	ldd	r18, Y+7	; 0x07
     77c:	38 85       	ldd	r19, Y+8	; 0x08
     77e:	37 fd       	sbrc	r19, 7
     780:	20 c0       	rjmp	.+64     	; 0x7c2 <__fixsfsi+0x80>
     782:	6e 81       	ldd	r22, Y+6	; 0x06
     784:	2f 31       	cpi	r18, 0x1F	; 31
     786:	31 05       	cpc	r19, r1
     788:	1c f0       	brlt	.+6      	; 0x790 <__fixsfsi+0x4e>
     78a:	66 23       	and	r22, r22
     78c:	f9 f0       	breq	.+62     	; 0x7cc <__fixsfsi+0x8a>
     78e:	23 c0       	rjmp	.+70     	; 0x7d6 <__fixsfsi+0x94>
     790:	8e e1       	ldi	r24, 0x1E	; 30
     792:	90 e0       	ldi	r25, 0x00	; 0
     794:	82 1b       	sub	r24, r18
     796:	93 0b       	sbc	r25, r19
     798:	29 85       	ldd	r18, Y+9	; 0x09
     79a:	3a 85       	ldd	r19, Y+10	; 0x0a
     79c:	4b 85       	ldd	r20, Y+11	; 0x0b
     79e:	5c 85       	ldd	r21, Y+12	; 0x0c
     7a0:	04 c0       	rjmp	.+8      	; 0x7aa <__fixsfsi+0x68>
     7a2:	56 95       	lsr	r21
     7a4:	47 95       	ror	r20
     7a6:	37 95       	ror	r19
     7a8:	27 95       	ror	r18
     7aa:	8a 95       	dec	r24
     7ac:	d2 f7       	brpl	.-12     	; 0x7a2 <__fixsfsi+0x60>
     7ae:	66 23       	and	r22, r22
     7b0:	b1 f0       	breq	.+44     	; 0x7de <__fixsfsi+0x9c>
     7b2:	50 95       	com	r21
     7b4:	40 95       	com	r20
     7b6:	30 95       	com	r19
     7b8:	21 95       	neg	r18
     7ba:	3f 4f       	sbci	r19, 0xFF	; 255
     7bc:	4f 4f       	sbci	r20, 0xFF	; 255
     7be:	5f 4f       	sbci	r21, 0xFF	; 255
     7c0:	0e c0       	rjmp	.+28     	; 0x7de <__fixsfsi+0x9c>
     7c2:	20 e0       	ldi	r18, 0x00	; 0
     7c4:	30 e0       	ldi	r19, 0x00	; 0
     7c6:	40 e0       	ldi	r20, 0x00	; 0
     7c8:	50 e0       	ldi	r21, 0x00	; 0
     7ca:	09 c0       	rjmp	.+18     	; 0x7de <__fixsfsi+0x9c>
     7cc:	2f ef       	ldi	r18, 0xFF	; 255
     7ce:	3f ef       	ldi	r19, 0xFF	; 255
     7d0:	4f ef       	ldi	r20, 0xFF	; 255
     7d2:	5f e7       	ldi	r21, 0x7F	; 127
     7d4:	04 c0       	rjmp	.+8      	; 0x7de <__fixsfsi+0x9c>
     7d6:	20 e0       	ldi	r18, 0x00	; 0
     7d8:	30 e0       	ldi	r19, 0x00	; 0
     7da:	40 e0       	ldi	r20, 0x00	; 0
     7dc:	50 e8       	ldi	r21, 0x80	; 128
     7de:	b9 01       	movw	r22, r18
     7e0:	ca 01       	movw	r24, r20
     7e2:	2c 96       	adiw	r28, 0x0c	; 12
     7e4:	e2 e0       	ldi	r30, 0x02	; 2
     7e6:	0c 94 28 10 	jmp	0x2050	; 0x2050 <__epilogue_restores__+0x20>

000007ea <__pack_f>:
     7ea:	df 92       	push	r13
     7ec:	ef 92       	push	r14
     7ee:	ff 92       	push	r15
     7f0:	0f 93       	push	r16
     7f2:	1f 93       	push	r17
     7f4:	fc 01       	movw	r30, r24
     7f6:	e4 80       	ldd	r14, Z+4	; 0x04
     7f8:	f5 80       	ldd	r15, Z+5	; 0x05
     7fa:	06 81       	ldd	r16, Z+6	; 0x06
     7fc:	17 81       	ldd	r17, Z+7	; 0x07
     7fe:	d1 80       	ldd	r13, Z+1	; 0x01
     800:	80 81       	ld	r24, Z
     802:	82 30       	cpi	r24, 0x02	; 2
     804:	48 f4       	brcc	.+18     	; 0x818 <__pack_f+0x2e>
     806:	80 e0       	ldi	r24, 0x00	; 0
     808:	90 e0       	ldi	r25, 0x00	; 0
     80a:	a0 e1       	ldi	r26, 0x10	; 16
     80c:	b0 e0       	ldi	r27, 0x00	; 0
     80e:	e8 2a       	or	r14, r24
     810:	f9 2a       	or	r15, r25
     812:	0a 2b       	or	r16, r26
     814:	1b 2b       	or	r17, r27
     816:	a5 c0       	rjmp	.+330    	; 0x962 <__stack+0x103>
     818:	84 30       	cpi	r24, 0x04	; 4
     81a:	09 f4       	brne	.+2      	; 0x81e <__pack_f+0x34>
     81c:	9f c0       	rjmp	.+318    	; 0x95c <__stack+0xfd>
     81e:	82 30       	cpi	r24, 0x02	; 2
     820:	21 f4       	brne	.+8      	; 0x82a <__pack_f+0x40>
     822:	ee 24       	eor	r14, r14
     824:	ff 24       	eor	r15, r15
     826:	87 01       	movw	r16, r14
     828:	05 c0       	rjmp	.+10     	; 0x834 <__pack_f+0x4a>
     82a:	e1 14       	cp	r14, r1
     82c:	f1 04       	cpc	r15, r1
     82e:	01 05       	cpc	r16, r1
     830:	11 05       	cpc	r17, r1
     832:	19 f4       	brne	.+6      	; 0x83a <__pack_f+0x50>
     834:	e0 e0       	ldi	r30, 0x00	; 0
     836:	f0 e0       	ldi	r31, 0x00	; 0
     838:	96 c0       	rjmp	.+300    	; 0x966 <__stack+0x107>
     83a:	62 81       	ldd	r22, Z+2	; 0x02
     83c:	73 81       	ldd	r23, Z+3	; 0x03
     83e:	9f ef       	ldi	r25, 0xFF	; 255
     840:	62 38       	cpi	r22, 0x82	; 130
     842:	79 07       	cpc	r23, r25
     844:	0c f0       	brlt	.+2      	; 0x848 <__pack_f+0x5e>
     846:	5b c0       	rjmp	.+182    	; 0x8fe <__stack+0x9f>
     848:	22 e8       	ldi	r18, 0x82	; 130
     84a:	3f ef       	ldi	r19, 0xFF	; 255
     84c:	26 1b       	sub	r18, r22
     84e:	37 0b       	sbc	r19, r23
     850:	2a 31       	cpi	r18, 0x1A	; 26
     852:	31 05       	cpc	r19, r1
     854:	2c f0       	brlt	.+10     	; 0x860 <__stack+0x1>
     856:	20 e0       	ldi	r18, 0x00	; 0
     858:	30 e0       	ldi	r19, 0x00	; 0
     85a:	40 e0       	ldi	r20, 0x00	; 0
     85c:	50 e0       	ldi	r21, 0x00	; 0
     85e:	2a c0       	rjmp	.+84     	; 0x8b4 <__stack+0x55>
     860:	b8 01       	movw	r22, r16
     862:	a7 01       	movw	r20, r14
     864:	02 2e       	mov	r0, r18
     866:	04 c0       	rjmp	.+8      	; 0x870 <__stack+0x11>
     868:	76 95       	lsr	r23
     86a:	67 95       	ror	r22
     86c:	57 95       	ror	r21
     86e:	47 95       	ror	r20
     870:	0a 94       	dec	r0
     872:	d2 f7       	brpl	.-12     	; 0x868 <__stack+0x9>
     874:	81 e0       	ldi	r24, 0x01	; 1
     876:	90 e0       	ldi	r25, 0x00	; 0
     878:	a0 e0       	ldi	r26, 0x00	; 0
     87a:	b0 e0       	ldi	r27, 0x00	; 0
     87c:	04 c0       	rjmp	.+8      	; 0x886 <__stack+0x27>
     87e:	88 0f       	add	r24, r24
     880:	99 1f       	adc	r25, r25
     882:	aa 1f       	adc	r26, r26
     884:	bb 1f       	adc	r27, r27
     886:	2a 95       	dec	r18
     888:	d2 f7       	brpl	.-12     	; 0x87e <__stack+0x1f>
     88a:	01 97       	sbiw	r24, 0x01	; 1
     88c:	a1 09       	sbc	r26, r1
     88e:	b1 09       	sbc	r27, r1
     890:	8e 21       	and	r24, r14
     892:	9f 21       	and	r25, r15
     894:	a0 23       	and	r26, r16
     896:	b1 23       	and	r27, r17
     898:	00 97       	sbiw	r24, 0x00	; 0
     89a:	a1 05       	cpc	r26, r1
     89c:	b1 05       	cpc	r27, r1
     89e:	21 f0       	breq	.+8      	; 0x8a8 <__stack+0x49>
     8a0:	81 e0       	ldi	r24, 0x01	; 1
     8a2:	90 e0       	ldi	r25, 0x00	; 0
     8a4:	a0 e0       	ldi	r26, 0x00	; 0
     8a6:	b0 e0       	ldi	r27, 0x00	; 0
     8a8:	9a 01       	movw	r18, r20
     8aa:	ab 01       	movw	r20, r22
     8ac:	28 2b       	or	r18, r24
     8ae:	39 2b       	or	r19, r25
     8b0:	4a 2b       	or	r20, r26
     8b2:	5b 2b       	or	r21, r27
     8b4:	da 01       	movw	r26, r20
     8b6:	c9 01       	movw	r24, r18
     8b8:	8f 77       	andi	r24, 0x7F	; 127
     8ba:	90 70       	andi	r25, 0x00	; 0
     8bc:	a0 70       	andi	r26, 0x00	; 0
     8be:	b0 70       	andi	r27, 0x00	; 0
     8c0:	80 34       	cpi	r24, 0x40	; 64
     8c2:	91 05       	cpc	r25, r1
     8c4:	a1 05       	cpc	r26, r1
     8c6:	b1 05       	cpc	r27, r1
     8c8:	39 f4       	brne	.+14     	; 0x8d8 <__stack+0x79>
     8ca:	27 ff       	sbrs	r18, 7
     8cc:	09 c0       	rjmp	.+18     	; 0x8e0 <__stack+0x81>
     8ce:	20 5c       	subi	r18, 0xC0	; 192
     8d0:	3f 4f       	sbci	r19, 0xFF	; 255
     8d2:	4f 4f       	sbci	r20, 0xFF	; 255
     8d4:	5f 4f       	sbci	r21, 0xFF	; 255
     8d6:	04 c0       	rjmp	.+8      	; 0x8e0 <__stack+0x81>
     8d8:	21 5c       	subi	r18, 0xC1	; 193
     8da:	3f 4f       	sbci	r19, 0xFF	; 255
     8dc:	4f 4f       	sbci	r20, 0xFF	; 255
     8de:	5f 4f       	sbci	r21, 0xFF	; 255
     8e0:	e0 e0       	ldi	r30, 0x00	; 0
     8e2:	f0 e0       	ldi	r31, 0x00	; 0
     8e4:	20 30       	cpi	r18, 0x00	; 0
     8e6:	a0 e0       	ldi	r26, 0x00	; 0
     8e8:	3a 07       	cpc	r19, r26
     8ea:	a0 e0       	ldi	r26, 0x00	; 0
     8ec:	4a 07       	cpc	r20, r26
     8ee:	a0 e4       	ldi	r26, 0x40	; 64
     8f0:	5a 07       	cpc	r21, r26
     8f2:	10 f0       	brcs	.+4      	; 0x8f8 <__stack+0x99>
     8f4:	e1 e0       	ldi	r30, 0x01	; 1
     8f6:	f0 e0       	ldi	r31, 0x00	; 0
     8f8:	79 01       	movw	r14, r18
     8fa:	8a 01       	movw	r16, r20
     8fc:	27 c0       	rjmp	.+78     	; 0x94c <__stack+0xed>
     8fe:	60 38       	cpi	r22, 0x80	; 128
     900:	71 05       	cpc	r23, r1
     902:	64 f5       	brge	.+88     	; 0x95c <__stack+0xfd>
     904:	fb 01       	movw	r30, r22
     906:	e1 58       	subi	r30, 0x81	; 129
     908:	ff 4f       	sbci	r31, 0xFF	; 255
     90a:	d8 01       	movw	r26, r16
     90c:	c7 01       	movw	r24, r14
     90e:	8f 77       	andi	r24, 0x7F	; 127
     910:	90 70       	andi	r25, 0x00	; 0
     912:	a0 70       	andi	r26, 0x00	; 0
     914:	b0 70       	andi	r27, 0x00	; 0
     916:	80 34       	cpi	r24, 0x40	; 64
     918:	91 05       	cpc	r25, r1
     91a:	a1 05       	cpc	r26, r1
     91c:	b1 05       	cpc	r27, r1
     91e:	39 f4       	brne	.+14     	; 0x92e <__stack+0xcf>
     920:	e7 fe       	sbrs	r14, 7
     922:	0d c0       	rjmp	.+26     	; 0x93e <__stack+0xdf>
     924:	80 e4       	ldi	r24, 0x40	; 64
     926:	90 e0       	ldi	r25, 0x00	; 0
     928:	a0 e0       	ldi	r26, 0x00	; 0
     92a:	b0 e0       	ldi	r27, 0x00	; 0
     92c:	04 c0       	rjmp	.+8      	; 0x936 <__stack+0xd7>
     92e:	8f e3       	ldi	r24, 0x3F	; 63
     930:	90 e0       	ldi	r25, 0x00	; 0
     932:	a0 e0       	ldi	r26, 0x00	; 0
     934:	b0 e0       	ldi	r27, 0x00	; 0
     936:	e8 0e       	add	r14, r24
     938:	f9 1e       	adc	r15, r25
     93a:	0a 1f       	adc	r16, r26
     93c:	1b 1f       	adc	r17, r27
     93e:	17 ff       	sbrs	r17, 7
     940:	05 c0       	rjmp	.+10     	; 0x94c <__stack+0xed>
     942:	16 95       	lsr	r17
     944:	07 95       	ror	r16
     946:	f7 94       	ror	r15
     948:	e7 94       	ror	r14
     94a:	31 96       	adiw	r30, 0x01	; 1
     94c:	87 e0       	ldi	r24, 0x07	; 7
     94e:	16 95       	lsr	r17
     950:	07 95       	ror	r16
     952:	f7 94       	ror	r15
     954:	e7 94       	ror	r14
     956:	8a 95       	dec	r24
     958:	d1 f7       	brne	.-12     	; 0x94e <__stack+0xef>
     95a:	05 c0       	rjmp	.+10     	; 0x966 <__stack+0x107>
     95c:	ee 24       	eor	r14, r14
     95e:	ff 24       	eor	r15, r15
     960:	87 01       	movw	r16, r14
     962:	ef ef       	ldi	r30, 0xFF	; 255
     964:	f0 e0       	ldi	r31, 0x00	; 0
     966:	6e 2f       	mov	r22, r30
     968:	67 95       	ror	r22
     96a:	66 27       	eor	r22, r22
     96c:	67 95       	ror	r22
     96e:	90 2f       	mov	r25, r16
     970:	9f 77       	andi	r25, 0x7F	; 127
     972:	d7 94       	ror	r13
     974:	dd 24       	eor	r13, r13
     976:	d7 94       	ror	r13
     978:	8e 2f       	mov	r24, r30
     97a:	86 95       	lsr	r24
     97c:	49 2f       	mov	r20, r25
     97e:	46 2b       	or	r20, r22
     980:	58 2f       	mov	r21, r24
     982:	5d 29       	or	r21, r13
     984:	b7 01       	movw	r22, r14
     986:	ca 01       	movw	r24, r20
     988:	1f 91       	pop	r17
     98a:	0f 91       	pop	r16
     98c:	ff 90       	pop	r15
     98e:	ef 90       	pop	r14
     990:	df 90       	pop	r13
     992:	08 95       	ret

00000994 <__unpack_f>:
     994:	fc 01       	movw	r30, r24
     996:	db 01       	movw	r26, r22
     998:	40 81       	ld	r20, Z
     99a:	51 81       	ldd	r21, Z+1	; 0x01
     99c:	22 81       	ldd	r18, Z+2	; 0x02
     99e:	62 2f       	mov	r22, r18
     9a0:	6f 77       	andi	r22, 0x7F	; 127
     9a2:	70 e0       	ldi	r23, 0x00	; 0
     9a4:	22 1f       	adc	r18, r18
     9a6:	22 27       	eor	r18, r18
     9a8:	22 1f       	adc	r18, r18
     9aa:	93 81       	ldd	r25, Z+3	; 0x03
     9ac:	89 2f       	mov	r24, r25
     9ae:	88 0f       	add	r24, r24
     9b0:	82 2b       	or	r24, r18
     9b2:	28 2f       	mov	r18, r24
     9b4:	30 e0       	ldi	r19, 0x00	; 0
     9b6:	99 1f       	adc	r25, r25
     9b8:	99 27       	eor	r25, r25
     9ba:	99 1f       	adc	r25, r25
     9bc:	11 96       	adiw	r26, 0x01	; 1
     9be:	9c 93       	st	X, r25
     9c0:	11 97       	sbiw	r26, 0x01	; 1
     9c2:	21 15       	cp	r18, r1
     9c4:	31 05       	cpc	r19, r1
     9c6:	a9 f5       	brne	.+106    	; 0xa32 <__unpack_f+0x9e>
     9c8:	41 15       	cp	r20, r1
     9ca:	51 05       	cpc	r21, r1
     9cc:	61 05       	cpc	r22, r1
     9ce:	71 05       	cpc	r23, r1
     9d0:	11 f4       	brne	.+4      	; 0x9d6 <__unpack_f+0x42>
     9d2:	82 e0       	ldi	r24, 0x02	; 2
     9d4:	37 c0       	rjmp	.+110    	; 0xa44 <__unpack_f+0xb0>
     9d6:	82 e8       	ldi	r24, 0x82	; 130
     9d8:	9f ef       	ldi	r25, 0xFF	; 255
     9da:	13 96       	adiw	r26, 0x03	; 3
     9dc:	9c 93       	st	X, r25
     9de:	8e 93       	st	-X, r24
     9e0:	12 97       	sbiw	r26, 0x02	; 2
     9e2:	9a 01       	movw	r18, r20
     9e4:	ab 01       	movw	r20, r22
     9e6:	67 e0       	ldi	r22, 0x07	; 7
     9e8:	22 0f       	add	r18, r18
     9ea:	33 1f       	adc	r19, r19
     9ec:	44 1f       	adc	r20, r20
     9ee:	55 1f       	adc	r21, r21
     9f0:	6a 95       	dec	r22
     9f2:	d1 f7       	brne	.-12     	; 0x9e8 <__unpack_f+0x54>
     9f4:	83 e0       	ldi	r24, 0x03	; 3
     9f6:	8c 93       	st	X, r24
     9f8:	0d c0       	rjmp	.+26     	; 0xa14 <__unpack_f+0x80>
     9fa:	22 0f       	add	r18, r18
     9fc:	33 1f       	adc	r19, r19
     9fe:	44 1f       	adc	r20, r20
     a00:	55 1f       	adc	r21, r21
     a02:	12 96       	adiw	r26, 0x02	; 2
     a04:	8d 91       	ld	r24, X+
     a06:	9c 91       	ld	r25, X
     a08:	13 97       	sbiw	r26, 0x03	; 3
     a0a:	01 97       	sbiw	r24, 0x01	; 1
     a0c:	13 96       	adiw	r26, 0x03	; 3
     a0e:	9c 93       	st	X, r25
     a10:	8e 93       	st	-X, r24
     a12:	12 97       	sbiw	r26, 0x02	; 2
     a14:	20 30       	cpi	r18, 0x00	; 0
     a16:	80 e0       	ldi	r24, 0x00	; 0
     a18:	38 07       	cpc	r19, r24
     a1a:	80 e0       	ldi	r24, 0x00	; 0
     a1c:	48 07       	cpc	r20, r24
     a1e:	80 e4       	ldi	r24, 0x40	; 64
     a20:	58 07       	cpc	r21, r24
     a22:	58 f3       	brcs	.-42     	; 0x9fa <__unpack_f+0x66>
     a24:	14 96       	adiw	r26, 0x04	; 4
     a26:	2d 93       	st	X+, r18
     a28:	3d 93       	st	X+, r19
     a2a:	4d 93       	st	X+, r20
     a2c:	5c 93       	st	X, r21
     a2e:	17 97       	sbiw	r26, 0x07	; 7
     a30:	08 95       	ret
     a32:	2f 3f       	cpi	r18, 0xFF	; 255
     a34:	31 05       	cpc	r19, r1
     a36:	79 f4       	brne	.+30     	; 0xa56 <__unpack_f+0xc2>
     a38:	41 15       	cp	r20, r1
     a3a:	51 05       	cpc	r21, r1
     a3c:	61 05       	cpc	r22, r1
     a3e:	71 05       	cpc	r23, r1
     a40:	19 f4       	brne	.+6      	; 0xa48 <__unpack_f+0xb4>
     a42:	84 e0       	ldi	r24, 0x04	; 4
     a44:	8c 93       	st	X, r24
     a46:	08 95       	ret
     a48:	64 ff       	sbrs	r22, 4
     a4a:	03 c0       	rjmp	.+6      	; 0xa52 <__unpack_f+0xbe>
     a4c:	81 e0       	ldi	r24, 0x01	; 1
     a4e:	8c 93       	st	X, r24
     a50:	12 c0       	rjmp	.+36     	; 0xa76 <__unpack_f+0xe2>
     a52:	1c 92       	st	X, r1
     a54:	10 c0       	rjmp	.+32     	; 0xa76 <__unpack_f+0xe2>
     a56:	2f 57       	subi	r18, 0x7F	; 127
     a58:	30 40       	sbci	r19, 0x00	; 0
     a5a:	13 96       	adiw	r26, 0x03	; 3
     a5c:	3c 93       	st	X, r19
     a5e:	2e 93       	st	-X, r18
     a60:	12 97       	sbiw	r26, 0x02	; 2
     a62:	83 e0       	ldi	r24, 0x03	; 3
     a64:	8c 93       	st	X, r24
     a66:	87 e0       	ldi	r24, 0x07	; 7
     a68:	44 0f       	add	r20, r20
     a6a:	55 1f       	adc	r21, r21
     a6c:	66 1f       	adc	r22, r22
     a6e:	77 1f       	adc	r23, r23
     a70:	8a 95       	dec	r24
     a72:	d1 f7       	brne	.-12     	; 0xa68 <__unpack_f+0xd4>
     a74:	70 64       	ori	r23, 0x40	; 64
     a76:	14 96       	adiw	r26, 0x04	; 4
     a78:	4d 93       	st	X+, r20
     a7a:	5d 93       	st	X+, r21
     a7c:	6d 93       	st	X+, r22
     a7e:	7c 93       	st	X, r23
     a80:	17 97       	sbiw	r26, 0x07	; 7
     a82:	08 95       	ret

00000a84 <__fpcmp_parts_f>:
     a84:	1f 93       	push	r17
     a86:	dc 01       	movw	r26, r24
     a88:	fb 01       	movw	r30, r22
     a8a:	9c 91       	ld	r25, X
     a8c:	92 30       	cpi	r25, 0x02	; 2
     a8e:	08 f4       	brcc	.+2      	; 0xa92 <__fpcmp_parts_f+0xe>
     a90:	47 c0       	rjmp	.+142    	; 0xb20 <__fpcmp_parts_f+0x9c>
     a92:	80 81       	ld	r24, Z
     a94:	82 30       	cpi	r24, 0x02	; 2
     a96:	08 f4       	brcc	.+2      	; 0xa9a <__fpcmp_parts_f+0x16>
     a98:	43 c0       	rjmp	.+134    	; 0xb20 <__fpcmp_parts_f+0x9c>
     a9a:	94 30       	cpi	r25, 0x04	; 4
     a9c:	51 f4       	brne	.+20     	; 0xab2 <__fpcmp_parts_f+0x2e>
     a9e:	11 96       	adiw	r26, 0x01	; 1
     aa0:	1c 91       	ld	r17, X
     aa2:	84 30       	cpi	r24, 0x04	; 4
     aa4:	99 f5       	brne	.+102    	; 0xb0c <__fpcmp_parts_f+0x88>
     aa6:	81 81       	ldd	r24, Z+1	; 0x01
     aa8:	68 2f       	mov	r22, r24
     aaa:	70 e0       	ldi	r23, 0x00	; 0
     aac:	61 1b       	sub	r22, r17
     aae:	71 09       	sbc	r23, r1
     ab0:	3f c0       	rjmp	.+126    	; 0xb30 <__fpcmp_parts_f+0xac>
     ab2:	84 30       	cpi	r24, 0x04	; 4
     ab4:	21 f0       	breq	.+8      	; 0xabe <__fpcmp_parts_f+0x3a>
     ab6:	92 30       	cpi	r25, 0x02	; 2
     ab8:	31 f4       	brne	.+12     	; 0xac6 <__fpcmp_parts_f+0x42>
     aba:	82 30       	cpi	r24, 0x02	; 2
     abc:	b9 f1       	breq	.+110    	; 0xb2c <__fpcmp_parts_f+0xa8>
     abe:	81 81       	ldd	r24, Z+1	; 0x01
     ac0:	88 23       	and	r24, r24
     ac2:	89 f1       	breq	.+98     	; 0xb26 <__fpcmp_parts_f+0xa2>
     ac4:	2d c0       	rjmp	.+90     	; 0xb20 <__fpcmp_parts_f+0x9c>
     ac6:	11 96       	adiw	r26, 0x01	; 1
     ac8:	1c 91       	ld	r17, X
     aca:	11 97       	sbiw	r26, 0x01	; 1
     acc:	82 30       	cpi	r24, 0x02	; 2
     ace:	f1 f0       	breq	.+60     	; 0xb0c <__fpcmp_parts_f+0x88>
     ad0:	81 81       	ldd	r24, Z+1	; 0x01
     ad2:	18 17       	cp	r17, r24
     ad4:	d9 f4       	brne	.+54     	; 0xb0c <__fpcmp_parts_f+0x88>
     ad6:	12 96       	adiw	r26, 0x02	; 2
     ad8:	2d 91       	ld	r18, X+
     ada:	3c 91       	ld	r19, X
     adc:	13 97       	sbiw	r26, 0x03	; 3
     ade:	82 81       	ldd	r24, Z+2	; 0x02
     ae0:	93 81       	ldd	r25, Z+3	; 0x03
     ae2:	82 17       	cp	r24, r18
     ae4:	93 07       	cpc	r25, r19
     ae6:	94 f0       	brlt	.+36     	; 0xb0c <__fpcmp_parts_f+0x88>
     ae8:	28 17       	cp	r18, r24
     aea:	39 07       	cpc	r19, r25
     aec:	bc f0       	brlt	.+46     	; 0xb1c <__fpcmp_parts_f+0x98>
     aee:	14 96       	adiw	r26, 0x04	; 4
     af0:	8d 91       	ld	r24, X+
     af2:	9d 91       	ld	r25, X+
     af4:	0d 90       	ld	r0, X+
     af6:	bc 91       	ld	r27, X
     af8:	a0 2d       	mov	r26, r0
     afa:	24 81       	ldd	r18, Z+4	; 0x04
     afc:	35 81       	ldd	r19, Z+5	; 0x05
     afe:	46 81       	ldd	r20, Z+6	; 0x06
     b00:	57 81       	ldd	r21, Z+7	; 0x07
     b02:	28 17       	cp	r18, r24
     b04:	39 07       	cpc	r19, r25
     b06:	4a 07       	cpc	r20, r26
     b08:	5b 07       	cpc	r21, r27
     b0a:	18 f4       	brcc	.+6      	; 0xb12 <__fpcmp_parts_f+0x8e>
     b0c:	11 23       	and	r17, r17
     b0e:	41 f0       	breq	.+16     	; 0xb20 <__fpcmp_parts_f+0x9c>
     b10:	0a c0       	rjmp	.+20     	; 0xb26 <__fpcmp_parts_f+0xa2>
     b12:	82 17       	cp	r24, r18
     b14:	93 07       	cpc	r25, r19
     b16:	a4 07       	cpc	r26, r20
     b18:	b5 07       	cpc	r27, r21
     b1a:	40 f4       	brcc	.+16     	; 0xb2c <__fpcmp_parts_f+0xa8>
     b1c:	11 23       	and	r17, r17
     b1e:	19 f0       	breq	.+6      	; 0xb26 <__fpcmp_parts_f+0xa2>
     b20:	61 e0       	ldi	r22, 0x01	; 1
     b22:	70 e0       	ldi	r23, 0x00	; 0
     b24:	05 c0       	rjmp	.+10     	; 0xb30 <__fpcmp_parts_f+0xac>
     b26:	6f ef       	ldi	r22, 0xFF	; 255
     b28:	7f ef       	ldi	r23, 0xFF	; 255
     b2a:	02 c0       	rjmp	.+4      	; 0xb30 <__fpcmp_parts_f+0xac>
     b2c:	60 e0       	ldi	r22, 0x00	; 0
     b2e:	70 e0       	ldi	r23, 0x00	; 0
     b30:	cb 01       	movw	r24, r22
     b32:	1f 91       	pop	r17
     b34:	08 95       	ret

00000b36 <MADC_voidInit>:
#include "../include/MCAL/ADC/ADC_Private.h"
#include "../include/MCAL/ADC/ADC_Cfg.h"


void MADC_voidInit (void)
{
     b36:	df 93       	push	r29
     b38:	cf 93       	push	r28
     b3a:	cd b7       	in	r28, 0x3d	; 61
     b3c:	de b7       	in	r29, 0x3e	; 62
	// 1 - Select AVCC with external capacitor at AREF pin
	SET_BIT(ADMUX,6);
     b3e:	a7 e2       	ldi	r26, 0x27	; 39
     b40:	b0 e0       	ldi	r27, 0x00	; 0
     b42:	e7 e2       	ldi	r30, 0x27	; 39
     b44:	f0 e0       	ldi	r31, 0x00	; 0
     b46:	80 81       	ld	r24, Z
     b48:	80 64       	ori	r24, 0x40	; 64
     b4a:	8c 93       	st	X, r24
	CLR_BIT(ADMUX,7);
     b4c:	a7 e2       	ldi	r26, 0x27	; 39
     b4e:	b0 e0       	ldi	r27, 0x00	; 0
     b50:	e7 e2       	ldi	r30, 0x27	; 39
     b52:	f0 e0       	ldi	r31, 0x00	; 0
     b54:	80 81       	ld	r24, Z
     b56:	8f 77       	andi	r24, 0x7F	; 127
     b58:	8c 93       	st	X, r24

	// 2 - Right Adjustment
	CLR_BIT(ADMUX,5);
     b5a:	a7 e2       	ldi	r26, 0x27	; 39
     b5c:	b0 e0       	ldi	r27, 0x00	; 0
     b5e:	e7 e2       	ldi	r30, 0x27	; 39
     b60:	f0 e0       	ldi	r31, 0x00	; 0
     b62:	80 81       	ld	r24, Z
     b64:	8f 7d       	andi	r24, 0xDF	; 223
     b66:	8c 93       	st	X, r24

	// 3 - Disable Auto Trigger
	CLR_BIT(ADCSRA,5);
     b68:	a6 e2       	ldi	r26, 0x26	; 38
     b6a:	b0 e0       	ldi	r27, 0x00	; 0
     b6c:	e6 e2       	ldi	r30, 0x26	; 38
     b6e:	f0 e0       	ldi	r31, 0x00	; 0
     b70:	80 81       	ld	r24, Z
     b72:	8f 7d       	andi	r24, 0xDF	; 223
     b74:	8c 93       	st	X, r24

	// 4 - Select CLK/64
	CLR_BIT(ADCSRA,0);
     b76:	a6 e2       	ldi	r26, 0x26	; 38
     b78:	b0 e0       	ldi	r27, 0x00	; 0
     b7a:	e6 e2       	ldi	r30, 0x26	; 38
     b7c:	f0 e0       	ldi	r31, 0x00	; 0
     b7e:	80 81       	ld	r24, Z
     b80:	8e 7f       	andi	r24, 0xFE	; 254
     b82:	8c 93       	st	X, r24
	SET_BIT(ADCSRA,1);
     b84:	a6 e2       	ldi	r26, 0x26	; 38
     b86:	b0 e0       	ldi	r27, 0x00	; 0
     b88:	e6 e2       	ldi	r30, 0x26	; 38
     b8a:	f0 e0       	ldi	r31, 0x00	; 0
     b8c:	80 81       	ld	r24, Z
     b8e:	82 60       	ori	r24, 0x02	; 2
     b90:	8c 93       	st	X, r24
	SET_BIT(ADCSRA,2);
     b92:	a6 e2       	ldi	r26, 0x26	; 38
     b94:	b0 e0       	ldi	r27, 0x00	; 0
     b96:	e6 e2       	ldi	r30, 0x26	; 38
     b98:	f0 e0       	ldi	r31, 0x00	; 0
     b9a:	80 81       	ld	r24, Z
     b9c:	84 60       	ori	r24, 0x04	; 4
     b9e:	8c 93       	st	X, r24

	// 5 - Enable ADC
	SET_BIT(ADCSRA,7);
     ba0:	a6 e2       	ldi	r26, 0x26	; 38
     ba2:	b0 e0       	ldi	r27, 0x00	; 0
     ba4:	e6 e2       	ldi	r30, 0x26	; 38
     ba6:	f0 e0       	ldi	r31, 0x00	; 0
     ba8:	80 81       	ld	r24, Z
     baa:	80 68       	ori	r24, 0x80	; 128
     bac:	8c 93       	st	X, r24

}
     bae:	cf 91       	pop	r28
     bb0:	df 91       	pop	r29
     bb2:	08 95       	ret

00000bb4 <MADC_u16GetDigitalvalue>:

u16 MADC_u16GetDigitalvalue (ADC_CHANNELS A_AdcChannel)
{
     bb4:	df 93       	push	r29
     bb6:	cf 93       	push	r28
     bb8:	00 d0       	rcall	.+0      	; 0xbba <MADC_u16GetDigitalvalue+0x6>
     bba:	0f 92       	push	r0
     bbc:	cd b7       	in	r28, 0x3d	; 61
     bbe:	de b7       	in	r29, 0x3e	; 62
     bc0:	8b 83       	std	Y+3, r24	; 0x03
	u16 local_u16DigitalValue=0;
     bc2:	1a 82       	std	Y+2, r1	; 0x02
     bc4:	19 82       	std	Y+1, r1	; 0x01
	if (A_AdcChannel <32)
     bc6:	8b 81       	ldd	r24, Y+3	; 0x03
     bc8:	80 32       	cpi	r24, 0x20	; 32
     bca:	70 f5       	brcc	.+92     	; 0xc28 <MADC_u16GetDigitalvalue+0x74>
	{
		// Clear the channel 5-bits
		ADMUX &= ADC_CHANNEL_MASK;
     bcc:	a7 e2       	ldi	r26, 0x27	; 39
     bce:	b0 e0       	ldi	r27, 0x00	; 0
     bd0:	e7 e2       	ldi	r30, 0x27	; 39
     bd2:	f0 e0       	ldi	r31, 0x00	; 0
     bd4:	80 81       	ld	r24, Z
     bd6:	80 7e       	andi	r24, 0xE0	; 224
     bd8:	8c 93       	st	X, r24

		// select channel
		ADMUX |= A_AdcChannel;
     bda:	a7 e2       	ldi	r26, 0x27	; 39
     bdc:	b0 e0       	ldi	r27, 0x00	; 0
     bde:	e7 e2       	ldi	r30, 0x27	; 39
     be0:	f0 e0       	ldi	r31, 0x00	; 0
     be2:	90 81       	ld	r25, Z
     be4:	8b 81       	ldd	r24, Y+3	; 0x03
     be6:	89 2b       	or	r24, r25
     be8:	8c 93       	st	X, r24

		// start conversion
		SET_BIT(ADCSRA,6);
     bea:	a6 e2       	ldi	r26, 0x26	; 38
     bec:	b0 e0       	ldi	r27, 0x00	; 0
     bee:	e6 e2       	ldi	r30, 0x26	; 38
     bf0:	f0 e0       	ldi	r31, 0x00	; 0
     bf2:	80 81       	ld	r24, Z
     bf4:	80 64       	ori	r24, 0x40	; 64
     bf6:	8c 93       	st	X, r24

		// Polling on ADC Complete flag
		while (GET_BIT(ADCSRA,4) == 0);
     bf8:	e6 e2       	ldi	r30, 0x26	; 38
     bfa:	f0 e0       	ldi	r31, 0x00	; 0
     bfc:	80 81       	ld	r24, Z
     bfe:	82 95       	swap	r24
     c00:	8f 70       	andi	r24, 0x0F	; 15
     c02:	88 2f       	mov	r24, r24
     c04:	90 e0       	ldi	r25, 0x00	; 0
     c06:	81 70       	andi	r24, 0x01	; 1
     c08:	90 70       	andi	r25, 0x00	; 0
     c0a:	00 97       	sbiw	r24, 0x00	; 0
     c0c:	a9 f3       	breq	.-22     	; 0xbf8 <MADC_u16GetDigitalvalue+0x44>

		// Clear INT. Flag
		SET_BIT(ADCSRA,4);
     c0e:	a6 e2       	ldi	r26, 0x26	; 38
     c10:	b0 e0       	ldi	r27, 0x00	; 0
     c12:	e6 e2       	ldi	r30, 0x26	; 38
     c14:	f0 e0       	ldi	r31, 0x00	; 0
     c16:	80 81       	ld	r24, Z
     c18:	80 61       	ori	r24, 0x10	; 16
     c1a:	8c 93       	st	X, r24

		// Read Conversion Value
		local_u16DigitalValue = ADCLH;
     c1c:	e4 e2       	ldi	r30, 0x24	; 36
     c1e:	f0 e0       	ldi	r31, 0x00	; 0
     c20:	80 81       	ld	r24, Z
     c22:	91 81       	ldd	r25, Z+1	; 0x01
     c24:	9a 83       	std	Y+2, r25	; 0x02
     c26:	89 83       	std	Y+1, r24	; 0x01
	}
	// return result of conversion
	return local_u16DigitalValue;
     c28:	89 81       	ldd	r24, Y+1	; 0x01
     c2a:	9a 81       	ldd	r25, Y+2	; 0x02
}
     c2c:	0f 90       	pop	r0
     c2e:	0f 90       	pop	r0
     c30:	0f 90       	pop	r0
     c32:	cf 91       	pop	r28
     c34:	df 91       	pop	r29
     c36:	08 95       	ret

00000c38 <MDIO_voidSetPinDirection>:
#include "../Include/MCAL/DIO/DIO_Cfg.h"

#define F_CPU 8000000UL

void MDIO_voidSetPinDirection (DIO_PORT_e A_DIOPort,DIO_PIN_e A_PINID, DIO_DIRECTION_e A_PINDirection)
{
     c38:	df 93       	push	r29
     c3a:	cf 93       	push	r28
     c3c:	cd b7       	in	r28, 0x3d	; 61
     c3e:	de b7       	in	r29, 0x3e	; 62
     c40:	2d 97       	sbiw	r28, 0x0d	; 13
     c42:	0f b6       	in	r0, 0x3f	; 63
     c44:	f8 94       	cli
     c46:	de bf       	out	0x3e, r29	; 62
     c48:	0f be       	out	0x3f, r0	; 63
     c4a:	cd bf       	out	0x3d, r28	; 61
     c4c:	89 83       	std	Y+1, r24	; 0x01
     c4e:	6a 83       	std	Y+2, r22	; 0x02
     c50:	4b 83       	std	Y+3, r20	; 0x03
	// Input Validation
	if ((A_DIOPort <= DIO_PORTD) && (A_PINID <= PIN7) && (A_PINDirection <= DIO_OUTPUT))
     c52:	89 81       	ldd	r24, Y+1	; 0x01
     c54:	84 30       	cpi	r24, 0x04	; 4
     c56:	08 f0       	brcs	.+2      	; 0xc5a <MDIO_voidSetPinDirection+0x22>
     c58:	09 c1       	rjmp	.+530    	; 0xe6c <MDIO_voidSetPinDirection+0x234>
     c5a:	8a 81       	ldd	r24, Y+2	; 0x02
     c5c:	88 30       	cpi	r24, 0x08	; 8
     c5e:	08 f0       	brcs	.+2      	; 0xc62 <MDIO_voidSetPinDirection+0x2a>
     c60:	05 c1       	rjmp	.+522    	; 0xe6c <MDIO_voidSetPinDirection+0x234>
     c62:	8b 81       	ldd	r24, Y+3	; 0x03
     c64:	82 30       	cpi	r24, 0x02	; 2
     c66:	08 f0       	brcs	.+2      	; 0xc6a <MDIO_voidSetPinDirection+0x32>
     c68:	01 c1       	rjmp	.+514    	; 0xe6c <MDIO_voidSetPinDirection+0x234>
	{
		switch (A_DIOPort)
     c6a:	89 81       	ldd	r24, Y+1	; 0x01
     c6c:	28 2f       	mov	r18, r24
     c6e:	30 e0       	ldi	r19, 0x00	; 0
     c70:	3d 87       	std	Y+13, r19	; 0x0d
     c72:	2c 87       	std	Y+12, r18	; 0x0c
     c74:	8c 85       	ldd	r24, Y+12	; 0x0c
     c76:	9d 85       	ldd	r25, Y+13	; 0x0d
     c78:	81 30       	cpi	r24, 0x01	; 1
     c7a:	91 05       	cpc	r25, r1
     c7c:	09 f4       	brne	.+2      	; 0xc80 <MDIO_voidSetPinDirection+0x48>
     c7e:	4f c0       	rjmp	.+158    	; 0xd1e <MDIO_voidSetPinDirection+0xe6>
     c80:	2c 85       	ldd	r18, Y+12	; 0x0c
     c82:	3d 85       	ldd	r19, Y+13	; 0x0d
     c84:	22 30       	cpi	r18, 0x02	; 2
     c86:	31 05       	cpc	r19, r1
     c88:	2c f4       	brge	.+10     	; 0xc94 <MDIO_voidSetPinDirection+0x5c>
     c8a:	8c 85       	ldd	r24, Y+12	; 0x0c
     c8c:	9d 85       	ldd	r25, Y+13	; 0x0d
     c8e:	00 97       	sbiw	r24, 0x00	; 0
     c90:	71 f0       	breq	.+28     	; 0xcae <MDIO_voidSetPinDirection+0x76>
     c92:	ec c0       	rjmp	.+472    	; 0xe6c <MDIO_voidSetPinDirection+0x234>
     c94:	2c 85       	ldd	r18, Y+12	; 0x0c
     c96:	3d 85       	ldd	r19, Y+13	; 0x0d
     c98:	22 30       	cpi	r18, 0x02	; 2
     c9a:	31 05       	cpc	r19, r1
     c9c:	09 f4       	brne	.+2      	; 0xca0 <MDIO_voidSetPinDirection+0x68>
     c9e:	77 c0       	rjmp	.+238    	; 0xd8e <MDIO_voidSetPinDirection+0x156>
     ca0:	8c 85       	ldd	r24, Y+12	; 0x0c
     ca2:	9d 85       	ldd	r25, Y+13	; 0x0d
     ca4:	83 30       	cpi	r24, 0x03	; 3
     ca6:	91 05       	cpc	r25, r1
     ca8:	09 f4       	brne	.+2      	; 0xcac <MDIO_voidSetPinDirection+0x74>
     caa:	a9 c0       	rjmp	.+338    	; 0xdfe <MDIO_voidSetPinDirection+0x1c6>
     cac:	df c0       	rjmp	.+446    	; 0xe6c <MDIO_voidSetPinDirection+0x234>
		{
		case DIO_PORTA:
			switch (A_PINDirection)
     cae:	8b 81       	ldd	r24, Y+3	; 0x03
     cb0:	28 2f       	mov	r18, r24
     cb2:	30 e0       	ldi	r19, 0x00	; 0
     cb4:	3b 87       	std	Y+11, r19	; 0x0b
     cb6:	2a 87       	std	Y+10, r18	; 0x0a
     cb8:	8a 85       	ldd	r24, Y+10	; 0x0a
     cba:	9b 85       	ldd	r25, Y+11	; 0x0b
     cbc:	00 97       	sbiw	r24, 0x00	; 0
     cbe:	31 f0       	breq	.+12     	; 0xccc <MDIO_voidSetPinDirection+0x94>
     cc0:	2a 85       	ldd	r18, Y+10	; 0x0a
     cc2:	3b 85       	ldd	r19, Y+11	; 0x0b
     cc4:	21 30       	cpi	r18, 0x01	; 1
     cc6:	31 05       	cpc	r19, r1
     cc8:	b1 f0       	breq	.+44     	; 0xcf6 <MDIO_voidSetPinDirection+0xbe>
     cca:	d0 c0       	rjmp	.+416    	; 0xe6c <MDIO_voidSetPinDirection+0x234>
			{
			case DIO_INPUT:
				CLR_BIT(DDRA_REG,A_PINID);
     ccc:	aa e3       	ldi	r26, 0x3A	; 58
     cce:	b0 e0       	ldi	r27, 0x00	; 0
     cd0:	ea e3       	ldi	r30, 0x3A	; 58
     cd2:	f0 e0       	ldi	r31, 0x00	; 0
     cd4:	80 81       	ld	r24, Z
     cd6:	48 2f       	mov	r20, r24
     cd8:	8a 81       	ldd	r24, Y+2	; 0x02
     cda:	28 2f       	mov	r18, r24
     cdc:	30 e0       	ldi	r19, 0x00	; 0
     cde:	81 e0       	ldi	r24, 0x01	; 1
     ce0:	90 e0       	ldi	r25, 0x00	; 0
     ce2:	02 2e       	mov	r0, r18
     ce4:	02 c0       	rjmp	.+4      	; 0xcea <MDIO_voidSetPinDirection+0xb2>
     ce6:	88 0f       	add	r24, r24
     ce8:	99 1f       	adc	r25, r25
     cea:	0a 94       	dec	r0
     cec:	e2 f7       	brpl	.-8      	; 0xce6 <MDIO_voidSetPinDirection+0xae>
     cee:	80 95       	com	r24
     cf0:	84 23       	and	r24, r20
     cf2:	8c 93       	st	X, r24
     cf4:	bb c0       	rjmp	.+374    	; 0xe6c <MDIO_voidSetPinDirection+0x234>
				break;
			case DIO_OUTPUT:
				SET_BIT(DDRA_REG,A_PINID);
     cf6:	aa e3       	ldi	r26, 0x3A	; 58
     cf8:	b0 e0       	ldi	r27, 0x00	; 0
     cfa:	ea e3       	ldi	r30, 0x3A	; 58
     cfc:	f0 e0       	ldi	r31, 0x00	; 0
     cfe:	80 81       	ld	r24, Z
     d00:	48 2f       	mov	r20, r24
     d02:	8a 81       	ldd	r24, Y+2	; 0x02
     d04:	28 2f       	mov	r18, r24
     d06:	30 e0       	ldi	r19, 0x00	; 0
     d08:	81 e0       	ldi	r24, 0x01	; 1
     d0a:	90 e0       	ldi	r25, 0x00	; 0
     d0c:	02 2e       	mov	r0, r18
     d0e:	02 c0       	rjmp	.+4      	; 0xd14 <MDIO_voidSetPinDirection+0xdc>
     d10:	88 0f       	add	r24, r24
     d12:	99 1f       	adc	r25, r25
     d14:	0a 94       	dec	r0
     d16:	e2 f7       	brpl	.-8      	; 0xd10 <MDIO_voidSetPinDirection+0xd8>
     d18:	84 2b       	or	r24, r20
     d1a:	8c 93       	st	X, r24
     d1c:	a7 c0       	rjmp	.+334    	; 0xe6c <MDIO_voidSetPinDirection+0x234>
				break;
			}
			break;
			// *******************************************
			case DIO_PORTB:
				switch (A_PINDirection)
     d1e:	8b 81       	ldd	r24, Y+3	; 0x03
     d20:	28 2f       	mov	r18, r24
     d22:	30 e0       	ldi	r19, 0x00	; 0
     d24:	39 87       	std	Y+9, r19	; 0x09
     d26:	28 87       	std	Y+8, r18	; 0x08
     d28:	88 85       	ldd	r24, Y+8	; 0x08
     d2a:	99 85       	ldd	r25, Y+9	; 0x09
     d2c:	00 97       	sbiw	r24, 0x00	; 0
     d2e:	31 f0       	breq	.+12     	; 0xd3c <MDIO_voidSetPinDirection+0x104>
     d30:	28 85       	ldd	r18, Y+8	; 0x08
     d32:	39 85       	ldd	r19, Y+9	; 0x09
     d34:	21 30       	cpi	r18, 0x01	; 1
     d36:	31 05       	cpc	r19, r1
     d38:	b1 f0       	breq	.+44     	; 0xd66 <MDIO_voidSetPinDirection+0x12e>
     d3a:	98 c0       	rjmp	.+304    	; 0xe6c <MDIO_voidSetPinDirection+0x234>
				{
				case DIO_INPUT:
					CLR_BIT(DDRB_REG,A_PINID);
     d3c:	a7 e3       	ldi	r26, 0x37	; 55
     d3e:	b0 e0       	ldi	r27, 0x00	; 0
     d40:	e7 e3       	ldi	r30, 0x37	; 55
     d42:	f0 e0       	ldi	r31, 0x00	; 0
     d44:	80 81       	ld	r24, Z
     d46:	48 2f       	mov	r20, r24
     d48:	8a 81       	ldd	r24, Y+2	; 0x02
     d4a:	28 2f       	mov	r18, r24
     d4c:	30 e0       	ldi	r19, 0x00	; 0
     d4e:	81 e0       	ldi	r24, 0x01	; 1
     d50:	90 e0       	ldi	r25, 0x00	; 0
     d52:	02 2e       	mov	r0, r18
     d54:	02 c0       	rjmp	.+4      	; 0xd5a <MDIO_voidSetPinDirection+0x122>
     d56:	88 0f       	add	r24, r24
     d58:	99 1f       	adc	r25, r25
     d5a:	0a 94       	dec	r0
     d5c:	e2 f7       	brpl	.-8      	; 0xd56 <MDIO_voidSetPinDirection+0x11e>
     d5e:	80 95       	com	r24
     d60:	84 23       	and	r24, r20
     d62:	8c 93       	st	X, r24
     d64:	83 c0       	rjmp	.+262    	; 0xe6c <MDIO_voidSetPinDirection+0x234>
					break;
				case DIO_OUTPUT:
					SET_BIT(DDRB_REG,A_PINID);
     d66:	a7 e3       	ldi	r26, 0x37	; 55
     d68:	b0 e0       	ldi	r27, 0x00	; 0
     d6a:	e7 e3       	ldi	r30, 0x37	; 55
     d6c:	f0 e0       	ldi	r31, 0x00	; 0
     d6e:	80 81       	ld	r24, Z
     d70:	48 2f       	mov	r20, r24
     d72:	8a 81       	ldd	r24, Y+2	; 0x02
     d74:	28 2f       	mov	r18, r24
     d76:	30 e0       	ldi	r19, 0x00	; 0
     d78:	81 e0       	ldi	r24, 0x01	; 1
     d7a:	90 e0       	ldi	r25, 0x00	; 0
     d7c:	02 2e       	mov	r0, r18
     d7e:	02 c0       	rjmp	.+4      	; 0xd84 <MDIO_voidSetPinDirection+0x14c>
     d80:	88 0f       	add	r24, r24
     d82:	99 1f       	adc	r25, r25
     d84:	0a 94       	dec	r0
     d86:	e2 f7       	brpl	.-8      	; 0xd80 <MDIO_voidSetPinDirection+0x148>
     d88:	84 2b       	or	r24, r20
     d8a:	8c 93       	st	X, r24
     d8c:	6f c0       	rjmp	.+222    	; 0xe6c <MDIO_voidSetPinDirection+0x234>
					break;
				}
				break;
				// *******************************************
				case DIO_PORTC:
					switch (A_PINDirection)
     d8e:	8b 81       	ldd	r24, Y+3	; 0x03
     d90:	28 2f       	mov	r18, r24
     d92:	30 e0       	ldi	r19, 0x00	; 0
     d94:	3f 83       	std	Y+7, r19	; 0x07
     d96:	2e 83       	std	Y+6, r18	; 0x06
     d98:	8e 81       	ldd	r24, Y+6	; 0x06
     d9a:	9f 81       	ldd	r25, Y+7	; 0x07
     d9c:	00 97       	sbiw	r24, 0x00	; 0
     d9e:	31 f0       	breq	.+12     	; 0xdac <MDIO_voidSetPinDirection+0x174>
     da0:	2e 81       	ldd	r18, Y+6	; 0x06
     da2:	3f 81       	ldd	r19, Y+7	; 0x07
     da4:	21 30       	cpi	r18, 0x01	; 1
     da6:	31 05       	cpc	r19, r1
     da8:	b1 f0       	breq	.+44     	; 0xdd6 <MDIO_voidSetPinDirection+0x19e>
     daa:	60 c0       	rjmp	.+192    	; 0xe6c <MDIO_voidSetPinDirection+0x234>
					{
					case DIO_INPUT:
						CLR_BIT(DDRC_REG,A_PINID);
     dac:	a4 e3       	ldi	r26, 0x34	; 52
     dae:	b0 e0       	ldi	r27, 0x00	; 0
     db0:	e4 e3       	ldi	r30, 0x34	; 52
     db2:	f0 e0       	ldi	r31, 0x00	; 0
     db4:	80 81       	ld	r24, Z
     db6:	48 2f       	mov	r20, r24
     db8:	8a 81       	ldd	r24, Y+2	; 0x02
     dba:	28 2f       	mov	r18, r24
     dbc:	30 e0       	ldi	r19, 0x00	; 0
     dbe:	81 e0       	ldi	r24, 0x01	; 1
     dc0:	90 e0       	ldi	r25, 0x00	; 0
     dc2:	02 2e       	mov	r0, r18
     dc4:	02 c0       	rjmp	.+4      	; 0xdca <MDIO_voidSetPinDirection+0x192>
     dc6:	88 0f       	add	r24, r24
     dc8:	99 1f       	adc	r25, r25
     dca:	0a 94       	dec	r0
     dcc:	e2 f7       	brpl	.-8      	; 0xdc6 <MDIO_voidSetPinDirection+0x18e>
     dce:	80 95       	com	r24
     dd0:	84 23       	and	r24, r20
     dd2:	8c 93       	st	X, r24
     dd4:	4b c0       	rjmp	.+150    	; 0xe6c <MDIO_voidSetPinDirection+0x234>
						break;
					case DIO_OUTPUT:
						SET_BIT(DDRC_REG,A_PINID);
     dd6:	a4 e3       	ldi	r26, 0x34	; 52
     dd8:	b0 e0       	ldi	r27, 0x00	; 0
     dda:	e4 e3       	ldi	r30, 0x34	; 52
     ddc:	f0 e0       	ldi	r31, 0x00	; 0
     dde:	80 81       	ld	r24, Z
     de0:	48 2f       	mov	r20, r24
     de2:	8a 81       	ldd	r24, Y+2	; 0x02
     de4:	28 2f       	mov	r18, r24
     de6:	30 e0       	ldi	r19, 0x00	; 0
     de8:	81 e0       	ldi	r24, 0x01	; 1
     dea:	90 e0       	ldi	r25, 0x00	; 0
     dec:	02 2e       	mov	r0, r18
     dee:	02 c0       	rjmp	.+4      	; 0xdf4 <MDIO_voidSetPinDirection+0x1bc>
     df0:	88 0f       	add	r24, r24
     df2:	99 1f       	adc	r25, r25
     df4:	0a 94       	dec	r0
     df6:	e2 f7       	brpl	.-8      	; 0xdf0 <MDIO_voidSetPinDirection+0x1b8>
     df8:	84 2b       	or	r24, r20
     dfa:	8c 93       	st	X, r24
     dfc:	37 c0       	rjmp	.+110    	; 0xe6c <MDIO_voidSetPinDirection+0x234>
						break;
					}
					break;
					// *******************************************
					case DIO_PORTD:
						switch (A_PINDirection)
     dfe:	8b 81       	ldd	r24, Y+3	; 0x03
     e00:	28 2f       	mov	r18, r24
     e02:	30 e0       	ldi	r19, 0x00	; 0
     e04:	3d 83       	std	Y+5, r19	; 0x05
     e06:	2c 83       	std	Y+4, r18	; 0x04
     e08:	8c 81       	ldd	r24, Y+4	; 0x04
     e0a:	9d 81       	ldd	r25, Y+5	; 0x05
     e0c:	00 97       	sbiw	r24, 0x00	; 0
     e0e:	31 f0       	breq	.+12     	; 0xe1c <MDIO_voidSetPinDirection+0x1e4>
     e10:	2c 81       	ldd	r18, Y+4	; 0x04
     e12:	3d 81       	ldd	r19, Y+5	; 0x05
     e14:	21 30       	cpi	r18, 0x01	; 1
     e16:	31 05       	cpc	r19, r1
     e18:	b1 f0       	breq	.+44     	; 0xe46 <MDIO_voidSetPinDirection+0x20e>
     e1a:	28 c0       	rjmp	.+80     	; 0xe6c <MDIO_voidSetPinDirection+0x234>
						{
						case DIO_INPUT:
							CLR_BIT(DDRD_REG,A_PINID);
     e1c:	a1 e3       	ldi	r26, 0x31	; 49
     e1e:	b0 e0       	ldi	r27, 0x00	; 0
     e20:	e1 e3       	ldi	r30, 0x31	; 49
     e22:	f0 e0       	ldi	r31, 0x00	; 0
     e24:	80 81       	ld	r24, Z
     e26:	48 2f       	mov	r20, r24
     e28:	8a 81       	ldd	r24, Y+2	; 0x02
     e2a:	28 2f       	mov	r18, r24
     e2c:	30 e0       	ldi	r19, 0x00	; 0
     e2e:	81 e0       	ldi	r24, 0x01	; 1
     e30:	90 e0       	ldi	r25, 0x00	; 0
     e32:	02 2e       	mov	r0, r18
     e34:	02 c0       	rjmp	.+4      	; 0xe3a <MDIO_voidSetPinDirection+0x202>
     e36:	88 0f       	add	r24, r24
     e38:	99 1f       	adc	r25, r25
     e3a:	0a 94       	dec	r0
     e3c:	e2 f7       	brpl	.-8      	; 0xe36 <MDIO_voidSetPinDirection+0x1fe>
     e3e:	80 95       	com	r24
     e40:	84 23       	and	r24, r20
     e42:	8c 93       	st	X, r24
     e44:	13 c0       	rjmp	.+38     	; 0xe6c <MDIO_voidSetPinDirection+0x234>
							break;
						case DIO_OUTPUT:
							SET_BIT(DDRD_REG,A_PINID);
     e46:	a1 e3       	ldi	r26, 0x31	; 49
     e48:	b0 e0       	ldi	r27, 0x00	; 0
     e4a:	e1 e3       	ldi	r30, 0x31	; 49
     e4c:	f0 e0       	ldi	r31, 0x00	; 0
     e4e:	80 81       	ld	r24, Z
     e50:	48 2f       	mov	r20, r24
     e52:	8a 81       	ldd	r24, Y+2	; 0x02
     e54:	28 2f       	mov	r18, r24
     e56:	30 e0       	ldi	r19, 0x00	; 0
     e58:	81 e0       	ldi	r24, 0x01	; 1
     e5a:	90 e0       	ldi	r25, 0x00	; 0
     e5c:	02 2e       	mov	r0, r18
     e5e:	02 c0       	rjmp	.+4      	; 0xe64 <MDIO_voidSetPinDirection+0x22c>
     e60:	88 0f       	add	r24, r24
     e62:	99 1f       	adc	r25, r25
     e64:	0a 94       	dec	r0
     e66:	e2 f7       	brpl	.-8      	; 0xe60 <MDIO_voidSetPinDirection+0x228>
     e68:	84 2b       	or	r24, r20
     e6a:	8c 93       	st	X, r24
	}
	else
	{
		// Do Nothing
	}
}
     e6c:	2d 96       	adiw	r28, 0x0d	; 13
     e6e:	0f b6       	in	r0, 0x3f	; 63
     e70:	f8 94       	cli
     e72:	de bf       	out	0x3e, r29	; 62
     e74:	0f be       	out	0x3f, r0	; 63
     e76:	cd bf       	out	0x3d, r28	; 61
     e78:	cf 91       	pop	r28
     e7a:	df 91       	pop	r29
     e7c:	08 95       	ret

00000e7e <MDIO_voidSetPinValue>:


void MDIO_voidSetPinValue (DIO_PORT_e A_DIOPort,DIO_PIN_e A_PINID, DIO_VALUE_e A_PINValue)
{
     e7e:	df 93       	push	r29
     e80:	cf 93       	push	r28
     e82:	cd b7       	in	r28, 0x3d	; 61
     e84:	de b7       	in	r29, 0x3e	; 62
     e86:	2d 97       	sbiw	r28, 0x0d	; 13
     e88:	0f b6       	in	r0, 0x3f	; 63
     e8a:	f8 94       	cli
     e8c:	de bf       	out	0x3e, r29	; 62
     e8e:	0f be       	out	0x3f, r0	; 63
     e90:	cd bf       	out	0x3d, r28	; 61
     e92:	89 83       	std	Y+1, r24	; 0x01
     e94:	6a 83       	std	Y+2, r22	; 0x02
     e96:	4b 83       	std	Y+3, r20	; 0x03
	// Input Validation
	if ((A_DIOPort <= DIO_PORTD) && (A_PINID <= PIN7) && (A_PINValue <= DIO_SET))
     e98:	89 81       	ldd	r24, Y+1	; 0x01
     e9a:	84 30       	cpi	r24, 0x04	; 4
     e9c:	08 f0       	brcs	.+2      	; 0xea0 <MDIO_voidSetPinValue+0x22>
     e9e:	09 c1       	rjmp	.+530    	; 0x10b2 <MDIO_voidSetPinValue+0x234>
     ea0:	8a 81       	ldd	r24, Y+2	; 0x02
     ea2:	88 30       	cpi	r24, 0x08	; 8
     ea4:	08 f0       	brcs	.+2      	; 0xea8 <MDIO_voidSetPinValue+0x2a>
     ea6:	05 c1       	rjmp	.+522    	; 0x10b2 <MDIO_voidSetPinValue+0x234>
     ea8:	8b 81       	ldd	r24, Y+3	; 0x03
     eaa:	82 30       	cpi	r24, 0x02	; 2
     eac:	08 f0       	brcs	.+2      	; 0xeb0 <MDIO_voidSetPinValue+0x32>
     eae:	01 c1       	rjmp	.+514    	; 0x10b2 <MDIO_voidSetPinValue+0x234>
	{
		switch (A_DIOPort)
     eb0:	89 81       	ldd	r24, Y+1	; 0x01
     eb2:	28 2f       	mov	r18, r24
     eb4:	30 e0       	ldi	r19, 0x00	; 0
     eb6:	3d 87       	std	Y+13, r19	; 0x0d
     eb8:	2c 87       	std	Y+12, r18	; 0x0c
     eba:	8c 85       	ldd	r24, Y+12	; 0x0c
     ebc:	9d 85       	ldd	r25, Y+13	; 0x0d
     ebe:	81 30       	cpi	r24, 0x01	; 1
     ec0:	91 05       	cpc	r25, r1
     ec2:	09 f4       	brne	.+2      	; 0xec6 <MDIO_voidSetPinValue+0x48>
     ec4:	4f c0       	rjmp	.+158    	; 0xf64 <MDIO_voidSetPinValue+0xe6>
     ec6:	2c 85       	ldd	r18, Y+12	; 0x0c
     ec8:	3d 85       	ldd	r19, Y+13	; 0x0d
     eca:	22 30       	cpi	r18, 0x02	; 2
     ecc:	31 05       	cpc	r19, r1
     ece:	2c f4       	brge	.+10     	; 0xeda <MDIO_voidSetPinValue+0x5c>
     ed0:	8c 85       	ldd	r24, Y+12	; 0x0c
     ed2:	9d 85       	ldd	r25, Y+13	; 0x0d
     ed4:	00 97       	sbiw	r24, 0x00	; 0
     ed6:	71 f0       	breq	.+28     	; 0xef4 <MDIO_voidSetPinValue+0x76>
     ed8:	ec c0       	rjmp	.+472    	; 0x10b2 <MDIO_voidSetPinValue+0x234>
     eda:	2c 85       	ldd	r18, Y+12	; 0x0c
     edc:	3d 85       	ldd	r19, Y+13	; 0x0d
     ede:	22 30       	cpi	r18, 0x02	; 2
     ee0:	31 05       	cpc	r19, r1
     ee2:	09 f4       	brne	.+2      	; 0xee6 <MDIO_voidSetPinValue+0x68>
     ee4:	77 c0       	rjmp	.+238    	; 0xfd4 <MDIO_voidSetPinValue+0x156>
     ee6:	8c 85       	ldd	r24, Y+12	; 0x0c
     ee8:	9d 85       	ldd	r25, Y+13	; 0x0d
     eea:	83 30       	cpi	r24, 0x03	; 3
     eec:	91 05       	cpc	r25, r1
     eee:	09 f4       	brne	.+2      	; 0xef2 <MDIO_voidSetPinValue+0x74>
     ef0:	a9 c0       	rjmp	.+338    	; 0x1044 <MDIO_voidSetPinValue+0x1c6>
     ef2:	df c0       	rjmp	.+446    	; 0x10b2 <MDIO_voidSetPinValue+0x234>
		{
		case DIO_PORTA:
			switch (A_PINValue)
     ef4:	8b 81       	ldd	r24, Y+3	; 0x03
     ef6:	28 2f       	mov	r18, r24
     ef8:	30 e0       	ldi	r19, 0x00	; 0
     efa:	3b 87       	std	Y+11, r19	; 0x0b
     efc:	2a 87       	std	Y+10, r18	; 0x0a
     efe:	8a 85       	ldd	r24, Y+10	; 0x0a
     f00:	9b 85       	ldd	r25, Y+11	; 0x0b
     f02:	00 97       	sbiw	r24, 0x00	; 0
     f04:	31 f0       	breq	.+12     	; 0xf12 <MDIO_voidSetPinValue+0x94>
     f06:	2a 85       	ldd	r18, Y+10	; 0x0a
     f08:	3b 85       	ldd	r19, Y+11	; 0x0b
     f0a:	21 30       	cpi	r18, 0x01	; 1
     f0c:	31 05       	cpc	r19, r1
     f0e:	b1 f0       	breq	.+44     	; 0xf3c <MDIO_voidSetPinValue+0xbe>
     f10:	d0 c0       	rjmp	.+416    	; 0x10b2 <MDIO_voidSetPinValue+0x234>
			{
			case DIO_RESET:
				CLR_BIT(PORTA_REG,A_PINID);
     f12:	ab e3       	ldi	r26, 0x3B	; 59
     f14:	b0 e0       	ldi	r27, 0x00	; 0
     f16:	eb e3       	ldi	r30, 0x3B	; 59
     f18:	f0 e0       	ldi	r31, 0x00	; 0
     f1a:	80 81       	ld	r24, Z
     f1c:	48 2f       	mov	r20, r24
     f1e:	8a 81       	ldd	r24, Y+2	; 0x02
     f20:	28 2f       	mov	r18, r24
     f22:	30 e0       	ldi	r19, 0x00	; 0
     f24:	81 e0       	ldi	r24, 0x01	; 1
     f26:	90 e0       	ldi	r25, 0x00	; 0
     f28:	02 2e       	mov	r0, r18
     f2a:	02 c0       	rjmp	.+4      	; 0xf30 <MDIO_voidSetPinValue+0xb2>
     f2c:	88 0f       	add	r24, r24
     f2e:	99 1f       	adc	r25, r25
     f30:	0a 94       	dec	r0
     f32:	e2 f7       	brpl	.-8      	; 0xf2c <MDIO_voidSetPinValue+0xae>
     f34:	80 95       	com	r24
     f36:	84 23       	and	r24, r20
     f38:	8c 93       	st	X, r24
     f3a:	bb c0       	rjmp	.+374    	; 0x10b2 <MDIO_voidSetPinValue+0x234>
				break;
			case DIO_SET:
				SET_BIT(PORTA_REG,A_PINID);
     f3c:	ab e3       	ldi	r26, 0x3B	; 59
     f3e:	b0 e0       	ldi	r27, 0x00	; 0
     f40:	eb e3       	ldi	r30, 0x3B	; 59
     f42:	f0 e0       	ldi	r31, 0x00	; 0
     f44:	80 81       	ld	r24, Z
     f46:	48 2f       	mov	r20, r24
     f48:	8a 81       	ldd	r24, Y+2	; 0x02
     f4a:	28 2f       	mov	r18, r24
     f4c:	30 e0       	ldi	r19, 0x00	; 0
     f4e:	81 e0       	ldi	r24, 0x01	; 1
     f50:	90 e0       	ldi	r25, 0x00	; 0
     f52:	02 2e       	mov	r0, r18
     f54:	02 c0       	rjmp	.+4      	; 0xf5a <MDIO_voidSetPinValue+0xdc>
     f56:	88 0f       	add	r24, r24
     f58:	99 1f       	adc	r25, r25
     f5a:	0a 94       	dec	r0
     f5c:	e2 f7       	brpl	.-8      	; 0xf56 <MDIO_voidSetPinValue+0xd8>
     f5e:	84 2b       	or	r24, r20
     f60:	8c 93       	st	X, r24
     f62:	a7 c0       	rjmp	.+334    	; 0x10b2 <MDIO_voidSetPinValue+0x234>
				break;
			}
			break;
			// *******************************************
			case DIO_PORTB:
				switch (A_PINValue)
     f64:	8b 81       	ldd	r24, Y+3	; 0x03
     f66:	28 2f       	mov	r18, r24
     f68:	30 e0       	ldi	r19, 0x00	; 0
     f6a:	39 87       	std	Y+9, r19	; 0x09
     f6c:	28 87       	std	Y+8, r18	; 0x08
     f6e:	88 85       	ldd	r24, Y+8	; 0x08
     f70:	99 85       	ldd	r25, Y+9	; 0x09
     f72:	00 97       	sbiw	r24, 0x00	; 0
     f74:	31 f0       	breq	.+12     	; 0xf82 <MDIO_voidSetPinValue+0x104>
     f76:	28 85       	ldd	r18, Y+8	; 0x08
     f78:	39 85       	ldd	r19, Y+9	; 0x09
     f7a:	21 30       	cpi	r18, 0x01	; 1
     f7c:	31 05       	cpc	r19, r1
     f7e:	b1 f0       	breq	.+44     	; 0xfac <MDIO_voidSetPinValue+0x12e>
     f80:	98 c0       	rjmp	.+304    	; 0x10b2 <MDIO_voidSetPinValue+0x234>
				{
				case DIO_RESET:
					CLR_BIT(PORTB_REG,A_PINID);
     f82:	a8 e3       	ldi	r26, 0x38	; 56
     f84:	b0 e0       	ldi	r27, 0x00	; 0
     f86:	e8 e3       	ldi	r30, 0x38	; 56
     f88:	f0 e0       	ldi	r31, 0x00	; 0
     f8a:	80 81       	ld	r24, Z
     f8c:	48 2f       	mov	r20, r24
     f8e:	8a 81       	ldd	r24, Y+2	; 0x02
     f90:	28 2f       	mov	r18, r24
     f92:	30 e0       	ldi	r19, 0x00	; 0
     f94:	81 e0       	ldi	r24, 0x01	; 1
     f96:	90 e0       	ldi	r25, 0x00	; 0
     f98:	02 2e       	mov	r0, r18
     f9a:	02 c0       	rjmp	.+4      	; 0xfa0 <MDIO_voidSetPinValue+0x122>
     f9c:	88 0f       	add	r24, r24
     f9e:	99 1f       	adc	r25, r25
     fa0:	0a 94       	dec	r0
     fa2:	e2 f7       	brpl	.-8      	; 0xf9c <MDIO_voidSetPinValue+0x11e>
     fa4:	80 95       	com	r24
     fa6:	84 23       	and	r24, r20
     fa8:	8c 93       	st	X, r24
     faa:	83 c0       	rjmp	.+262    	; 0x10b2 <MDIO_voidSetPinValue+0x234>
					break;
				case DIO_SET:
					SET_BIT(PORTB_REG,A_PINID);
     fac:	a8 e3       	ldi	r26, 0x38	; 56
     fae:	b0 e0       	ldi	r27, 0x00	; 0
     fb0:	e8 e3       	ldi	r30, 0x38	; 56
     fb2:	f0 e0       	ldi	r31, 0x00	; 0
     fb4:	80 81       	ld	r24, Z
     fb6:	48 2f       	mov	r20, r24
     fb8:	8a 81       	ldd	r24, Y+2	; 0x02
     fba:	28 2f       	mov	r18, r24
     fbc:	30 e0       	ldi	r19, 0x00	; 0
     fbe:	81 e0       	ldi	r24, 0x01	; 1
     fc0:	90 e0       	ldi	r25, 0x00	; 0
     fc2:	02 2e       	mov	r0, r18
     fc4:	02 c0       	rjmp	.+4      	; 0xfca <MDIO_voidSetPinValue+0x14c>
     fc6:	88 0f       	add	r24, r24
     fc8:	99 1f       	adc	r25, r25
     fca:	0a 94       	dec	r0
     fcc:	e2 f7       	brpl	.-8      	; 0xfc6 <MDIO_voidSetPinValue+0x148>
     fce:	84 2b       	or	r24, r20
     fd0:	8c 93       	st	X, r24
     fd2:	6f c0       	rjmp	.+222    	; 0x10b2 <MDIO_voidSetPinValue+0x234>
					break;
				}
				break;
				// *******************************************
				case DIO_PORTC:
					switch (A_PINValue)
     fd4:	8b 81       	ldd	r24, Y+3	; 0x03
     fd6:	28 2f       	mov	r18, r24
     fd8:	30 e0       	ldi	r19, 0x00	; 0
     fda:	3f 83       	std	Y+7, r19	; 0x07
     fdc:	2e 83       	std	Y+6, r18	; 0x06
     fde:	8e 81       	ldd	r24, Y+6	; 0x06
     fe0:	9f 81       	ldd	r25, Y+7	; 0x07
     fe2:	00 97       	sbiw	r24, 0x00	; 0
     fe4:	31 f0       	breq	.+12     	; 0xff2 <MDIO_voidSetPinValue+0x174>
     fe6:	2e 81       	ldd	r18, Y+6	; 0x06
     fe8:	3f 81       	ldd	r19, Y+7	; 0x07
     fea:	21 30       	cpi	r18, 0x01	; 1
     fec:	31 05       	cpc	r19, r1
     fee:	b1 f0       	breq	.+44     	; 0x101c <MDIO_voidSetPinValue+0x19e>
     ff0:	60 c0       	rjmp	.+192    	; 0x10b2 <MDIO_voidSetPinValue+0x234>
					{
					case DIO_RESET:
						CLR_BIT(PORTC_REG,A_PINID);
     ff2:	a5 e3       	ldi	r26, 0x35	; 53
     ff4:	b0 e0       	ldi	r27, 0x00	; 0
     ff6:	e5 e3       	ldi	r30, 0x35	; 53
     ff8:	f0 e0       	ldi	r31, 0x00	; 0
     ffa:	80 81       	ld	r24, Z
     ffc:	48 2f       	mov	r20, r24
     ffe:	8a 81       	ldd	r24, Y+2	; 0x02
    1000:	28 2f       	mov	r18, r24
    1002:	30 e0       	ldi	r19, 0x00	; 0
    1004:	81 e0       	ldi	r24, 0x01	; 1
    1006:	90 e0       	ldi	r25, 0x00	; 0
    1008:	02 2e       	mov	r0, r18
    100a:	02 c0       	rjmp	.+4      	; 0x1010 <MDIO_voidSetPinValue+0x192>
    100c:	88 0f       	add	r24, r24
    100e:	99 1f       	adc	r25, r25
    1010:	0a 94       	dec	r0
    1012:	e2 f7       	brpl	.-8      	; 0x100c <MDIO_voidSetPinValue+0x18e>
    1014:	80 95       	com	r24
    1016:	84 23       	and	r24, r20
    1018:	8c 93       	st	X, r24
    101a:	4b c0       	rjmp	.+150    	; 0x10b2 <MDIO_voidSetPinValue+0x234>
						break;
					case DIO_SET:
						SET_BIT(PORTC_REG,A_PINID);
    101c:	a5 e3       	ldi	r26, 0x35	; 53
    101e:	b0 e0       	ldi	r27, 0x00	; 0
    1020:	e5 e3       	ldi	r30, 0x35	; 53
    1022:	f0 e0       	ldi	r31, 0x00	; 0
    1024:	80 81       	ld	r24, Z
    1026:	48 2f       	mov	r20, r24
    1028:	8a 81       	ldd	r24, Y+2	; 0x02
    102a:	28 2f       	mov	r18, r24
    102c:	30 e0       	ldi	r19, 0x00	; 0
    102e:	81 e0       	ldi	r24, 0x01	; 1
    1030:	90 e0       	ldi	r25, 0x00	; 0
    1032:	02 2e       	mov	r0, r18
    1034:	02 c0       	rjmp	.+4      	; 0x103a <MDIO_voidSetPinValue+0x1bc>
    1036:	88 0f       	add	r24, r24
    1038:	99 1f       	adc	r25, r25
    103a:	0a 94       	dec	r0
    103c:	e2 f7       	brpl	.-8      	; 0x1036 <MDIO_voidSetPinValue+0x1b8>
    103e:	84 2b       	or	r24, r20
    1040:	8c 93       	st	X, r24
    1042:	37 c0       	rjmp	.+110    	; 0x10b2 <MDIO_voidSetPinValue+0x234>
						break;
					}
					break;
					// *******************************************
					case DIO_PORTD:
						switch (A_PINValue)
    1044:	8b 81       	ldd	r24, Y+3	; 0x03
    1046:	28 2f       	mov	r18, r24
    1048:	30 e0       	ldi	r19, 0x00	; 0
    104a:	3d 83       	std	Y+5, r19	; 0x05
    104c:	2c 83       	std	Y+4, r18	; 0x04
    104e:	8c 81       	ldd	r24, Y+4	; 0x04
    1050:	9d 81       	ldd	r25, Y+5	; 0x05
    1052:	00 97       	sbiw	r24, 0x00	; 0
    1054:	31 f0       	breq	.+12     	; 0x1062 <MDIO_voidSetPinValue+0x1e4>
    1056:	2c 81       	ldd	r18, Y+4	; 0x04
    1058:	3d 81       	ldd	r19, Y+5	; 0x05
    105a:	21 30       	cpi	r18, 0x01	; 1
    105c:	31 05       	cpc	r19, r1
    105e:	b1 f0       	breq	.+44     	; 0x108c <MDIO_voidSetPinValue+0x20e>
    1060:	28 c0       	rjmp	.+80     	; 0x10b2 <MDIO_voidSetPinValue+0x234>
						{
						case DIO_RESET:
							CLR_BIT(PORTD_REG,A_PINID);
    1062:	a2 e3       	ldi	r26, 0x32	; 50
    1064:	b0 e0       	ldi	r27, 0x00	; 0
    1066:	e2 e3       	ldi	r30, 0x32	; 50
    1068:	f0 e0       	ldi	r31, 0x00	; 0
    106a:	80 81       	ld	r24, Z
    106c:	48 2f       	mov	r20, r24
    106e:	8a 81       	ldd	r24, Y+2	; 0x02
    1070:	28 2f       	mov	r18, r24
    1072:	30 e0       	ldi	r19, 0x00	; 0
    1074:	81 e0       	ldi	r24, 0x01	; 1
    1076:	90 e0       	ldi	r25, 0x00	; 0
    1078:	02 2e       	mov	r0, r18
    107a:	02 c0       	rjmp	.+4      	; 0x1080 <MDIO_voidSetPinValue+0x202>
    107c:	88 0f       	add	r24, r24
    107e:	99 1f       	adc	r25, r25
    1080:	0a 94       	dec	r0
    1082:	e2 f7       	brpl	.-8      	; 0x107c <MDIO_voidSetPinValue+0x1fe>
    1084:	80 95       	com	r24
    1086:	84 23       	and	r24, r20
    1088:	8c 93       	st	X, r24
    108a:	13 c0       	rjmp	.+38     	; 0x10b2 <MDIO_voidSetPinValue+0x234>
							break;
						case DIO_SET:
							SET_BIT(PORTD_REG,A_PINID);
    108c:	a2 e3       	ldi	r26, 0x32	; 50
    108e:	b0 e0       	ldi	r27, 0x00	; 0
    1090:	e2 e3       	ldi	r30, 0x32	; 50
    1092:	f0 e0       	ldi	r31, 0x00	; 0
    1094:	80 81       	ld	r24, Z
    1096:	48 2f       	mov	r20, r24
    1098:	8a 81       	ldd	r24, Y+2	; 0x02
    109a:	28 2f       	mov	r18, r24
    109c:	30 e0       	ldi	r19, 0x00	; 0
    109e:	81 e0       	ldi	r24, 0x01	; 1
    10a0:	90 e0       	ldi	r25, 0x00	; 0
    10a2:	02 2e       	mov	r0, r18
    10a4:	02 c0       	rjmp	.+4      	; 0x10aa <MDIO_voidSetPinValue+0x22c>
    10a6:	88 0f       	add	r24, r24
    10a8:	99 1f       	adc	r25, r25
    10aa:	0a 94       	dec	r0
    10ac:	e2 f7       	brpl	.-8      	; 0x10a6 <MDIO_voidSetPinValue+0x228>
    10ae:	84 2b       	or	r24, r20
    10b0:	8c 93       	st	X, r24
	}
	else
	{
		// Do Nothing
	}
}
    10b2:	2d 96       	adiw	r28, 0x0d	; 13
    10b4:	0f b6       	in	r0, 0x3f	; 63
    10b6:	f8 94       	cli
    10b8:	de bf       	out	0x3e, r29	; 62
    10ba:	0f be       	out	0x3f, r0	; 63
    10bc:	cd bf       	out	0x3d, r28	; 61
    10be:	cf 91       	pop	r28
    10c0:	df 91       	pop	r29
    10c2:	08 95       	ret

000010c4 <MDIO_GetPinValue>:


DIO_VALUE_e MDIO_GetPinValue (DIO_PORT_e A_DIOPort,DIO_PIN_e A_PINID)
{
    10c4:	df 93       	push	r29
    10c6:	cf 93       	push	r28
    10c8:	00 d0       	rcall	.+0      	; 0x10ca <MDIO_GetPinValue+0x6>
    10ca:	00 d0       	rcall	.+0      	; 0x10cc <MDIO_GetPinValue+0x8>
    10cc:	0f 92       	push	r0
    10ce:	cd b7       	in	r28, 0x3d	; 61
    10d0:	de b7       	in	r29, 0x3e	; 62
    10d2:	8a 83       	std	Y+2, r24	; 0x02
    10d4:	6b 83       	std	Y+3, r22	; 0x03
	DIO_VALUE_e local_PINValue;
	if ((A_DIOPort <= DIO_PORTD) && (A_PINID <= PIN7))
    10d6:	8a 81       	ldd	r24, Y+2	; 0x02
    10d8:	84 30       	cpi	r24, 0x04	; 4
    10da:	08 f0       	brcs	.+2      	; 0x10de <MDIO_GetPinValue+0x1a>
    10dc:	6b c0       	rjmp	.+214    	; 0x11b4 <MDIO_GetPinValue+0xf0>
    10de:	8b 81       	ldd	r24, Y+3	; 0x03
    10e0:	88 30       	cpi	r24, 0x08	; 8
    10e2:	08 f0       	brcs	.+2      	; 0x10e6 <MDIO_GetPinValue+0x22>
    10e4:	67 c0       	rjmp	.+206    	; 0x11b4 <MDIO_GetPinValue+0xf0>
	{
		switch (A_DIOPort)
    10e6:	8a 81       	ldd	r24, Y+2	; 0x02
    10e8:	28 2f       	mov	r18, r24
    10ea:	30 e0       	ldi	r19, 0x00	; 0
    10ec:	3d 83       	std	Y+5, r19	; 0x05
    10ee:	2c 83       	std	Y+4, r18	; 0x04
    10f0:	4c 81       	ldd	r20, Y+4	; 0x04
    10f2:	5d 81       	ldd	r21, Y+5	; 0x05
    10f4:	41 30       	cpi	r20, 0x01	; 1
    10f6:	51 05       	cpc	r21, r1
    10f8:	41 f1       	breq	.+80     	; 0x114a <MDIO_GetPinValue+0x86>
    10fa:	8c 81       	ldd	r24, Y+4	; 0x04
    10fc:	9d 81       	ldd	r25, Y+5	; 0x05
    10fe:	82 30       	cpi	r24, 0x02	; 2
    1100:	91 05       	cpc	r25, r1
    1102:	34 f4       	brge	.+12     	; 0x1110 <MDIO_GetPinValue+0x4c>
    1104:	2c 81       	ldd	r18, Y+4	; 0x04
    1106:	3d 81       	ldd	r19, Y+5	; 0x05
    1108:	21 15       	cp	r18, r1
    110a:	31 05       	cpc	r19, r1
    110c:	61 f0       	breq	.+24     	; 0x1126 <MDIO_GetPinValue+0x62>
    110e:	52 c0       	rjmp	.+164    	; 0x11b4 <MDIO_GetPinValue+0xf0>
    1110:	4c 81       	ldd	r20, Y+4	; 0x04
    1112:	5d 81       	ldd	r21, Y+5	; 0x05
    1114:	42 30       	cpi	r20, 0x02	; 2
    1116:	51 05       	cpc	r21, r1
    1118:	51 f1       	breq	.+84     	; 0x116e <MDIO_GetPinValue+0xaa>
    111a:	8c 81       	ldd	r24, Y+4	; 0x04
    111c:	9d 81       	ldd	r25, Y+5	; 0x05
    111e:	83 30       	cpi	r24, 0x03	; 3
    1120:	91 05       	cpc	r25, r1
    1122:	b9 f1       	breq	.+110    	; 0x1192 <MDIO_GetPinValue+0xce>
    1124:	47 c0       	rjmp	.+142    	; 0x11b4 <MDIO_GetPinValue+0xf0>
		{
		case DIO_PORTA:
			local_PINValue = GET_BIT(PINA_REG,A_PINID);
    1126:	e9 e3       	ldi	r30, 0x39	; 57
    1128:	f0 e0       	ldi	r31, 0x00	; 0
    112a:	80 81       	ld	r24, Z
    112c:	28 2f       	mov	r18, r24
    112e:	30 e0       	ldi	r19, 0x00	; 0
    1130:	8b 81       	ldd	r24, Y+3	; 0x03
    1132:	88 2f       	mov	r24, r24
    1134:	90 e0       	ldi	r25, 0x00	; 0
    1136:	a9 01       	movw	r20, r18
    1138:	02 c0       	rjmp	.+4      	; 0x113e <MDIO_GetPinValue+0x7a>
    113a:	55 95       	asr	r21
    113c:	47 95       	ror	r20
    113e:	8a 95       	dec	r24
    1140:	e2 f7       	brpl	.-8      	; 0x113a <MDIO_GetPinValue+0x76>
    1142:	ca 01       	movw	r24, r20
    1144:	81 70       	andi	r24, 0x01	; 1
    1146:	89 83       	std	Y+1, r24	; 0x01
    1148:	35 c0       	rjmp	.+106    	; 0x11b4 <MDIO_GetPinValue+0xf0>
			break;
		case DIO_PORTB:
			local_PINValue = GET_BIT(PINB_REG,A_PINID);
    114a:	e6 e3       	ldi	r30, 0x36	; 54
    114c:	f0 e0       	ldi	r31, 0x00	; 0
    114e:	80 81       	ld	r24, Z
    1150:	28 2f       	mov	r18, r24
    1152:	30 e0       	ldi	r19, 0x00	; 0
    1154:	8b 81       	ldd	r24, Y+3	; 0x03
    1156:	88 2f       	mov	r24, r24
    1158:	90 e0       	ldi	r25, 0x00	; 0
    115a:	a9 01       	movw	r20, r18
    115c:	02 c0       	rjmp	.+4      	; 0x1162 <MDIO_GetPinValue+0x9e>
    115e:	55 95       	asr	r21
    1160:	47 95       	ror	r20
    1162:	8a 95       	dec	r24
    1164:	e2 f7       	brpl	.-8      	; 0x115e <MDIO_GetPinValue+0x9a>
    1166:	ca 01       	movw	r24, r20
    1168:	81 70       	andi	r24, 0x01	; 1
    116a:	89 83       	std	Y+1, r24	; 0x01
    116c:	23 c0       	rjmp	.+70     	; 0x11b4 <MDIO_GetPinValue+0xf0>
			break;
		case DIO_PORTC:
			local_PINValue = GET_BIT(PINC_REG,A_PINID);
    116e:	e3 e3       	ldi	r30, 0x33	; 51
    1170:	f0 e0       	ldi	r31, 0x00	; 0
    1172:	80 81       	ld	r24, Z
    1174:	28 2f       	mov	r18, r24
    1176:	30 e0       	ldi	r19, 0x00	; 0
    1178:	8b 81       	ldd	r24, Y+3	; 0x03
    117a:	88 2f       	mov	r24, r24
    117c:	90 e0       	ldi	r25, 0x00	; 0
    117e:	a9 01       	movw	r20, r18
    1180:	02 c0       	rjmp	.+4      	; 0x1186 <MDIO_GetPinValue+0xc2>
    1182:	55 95       	asr	r21
    1184:	47 95       	ror	r20
    1186:	8a 95       	dec	r24
    1188:	e2 f7       	brpl	.-8      	; 0x1182 <MDIO_GetPinValue+0xbe>
    118a:	ca 01       	movw	r24, r20
    118c:	81 70       	andi	r24, 0x01	; 1
    118e:	89 83       	std	Y+1, r24	; 0x01
    1190:	11 c0       	rjmp	.+34     	; 0x11b4 <MDIO_GetPinValue+0xf0>
			break;
		case DIO_PORTD:
			local_PINValue = GET_BIT(PIND_REG,A_PINID);
    1192:	e0 e3       	ldi	r30, 0x30	; 48
    1194:	f0 e0       	ldi	r31, 0x00	; 0
    1196:	80 81       	ld	r24, Z
    1198:	28 2f       	mov	r18, r24
    119a:	30 e0       	ldi	r19, 0x00	; 0
    119c:	8b 81       	ldd	r24, Y+3	; 0x03
    119e:	88 2f       	mov	r24, r24
    11a0:	90 e0       	ldi	r25, 0x00	; 0
    11a2:	a9 01       	movw	r20, r18
    11a4:	02 c0       	rjmp	.+4      	; 0x11aa <MDIO_GetPinValue+0xe6>
    11a6:	55 95       	asr	r21
    11a8:	47 95       	ror	r20
    11aa:	8a 95       	dec	r24
    11ac:	e2 f7       	brpl	.-8      	; 0x11a6 <MDIO_GetPinValue+0xe2>
    11ae:	ca 01       	movw	r24, r20
    11b0:	81 70       	andi	r24, 0x01	; 1
    11b2:	89 83       	std	Y+1, r24	; 0x01
			break;
		default:
			break;
		}
	}
	return local_PINValue;
    11b4:	89 81       	ldd	r24, Y+1	; 0x01
}
    11b6:	0f 90       	pop	r0
    11b8:	0f 90       	pop	r0
    11ba:	0f 90       	pop	r0
    11bc:	0f 90       	pop	r0
    11be:	0f 90       	pop	r0
    11c0:	cf 91       	pop	r28
    11c2:	df 91       	pop	r29
    11c4:	08 95       	ret

000011c6 <MDIO_voidTogglePinValue>:

void MDIO_voidTogglePinValue (DIO_PORT_e A_DIOPort,DIO_PIN_e A_PINID)
{
    11c6:	df 93       	push	r29
    11c8:	cf 93       	push	r28
    11ca:	00 d0       	rcall	.+0      	; 0x11cc <MDIO_voidTogglePinValue+0x6>
    11cc:	00 d0       	rcall	.+0      	; 0x11ce <MDIO_voidTogglePinValue+0x8>
    11ce:	cd b7       	in	r28, 0x3d	; 61
    11d0:	de b7       	in	r29, 0x3e	; 62
    11d2:	89 83       	std	Y+1, r24	; 0x01
    11d4:	6a 83       	std	Y+2, r22	; 0x02
	if ((A_DIOPort <= DIO_PORTD) && (A_PINID <= PIN7))
    11d6:	89 81       	ldd	r24, Y+1	; 0x01
    11d8:	84 30       	cpi	r24, 0x04	; 4
    11da:	08 f0       	brcs	.+2      	; 0x11de <MDIO_voidTogglePinValue+0x18>
    11dc:	72 c0       	rjmp	.+228    	; 0x12c2 <MDIO_voidTogglePinValue+0xfc>
    11de:	8a 81       	ldd	r24, Y+2	; 0x02
    11e0:	88 30       	cpi	r24, 0x08	; 8
    11e2:	08 f0       	brcs	.+2      	; 0x11e6 <MDIO_voidTogglePinValue+0x20>
    11e4:	6e c0       	rjmp	.+220    	; 0x12c2 <MDIO_voidTogglePinValue+0xfc>
	{
		switch (A_DIOPort)
    11e6:	89 81       	ldd	r24, Y+1	; 0x01
    11e8:	28 2f       	mov	r18, r24
    11ea:	30 e0       	ldi	r19, 0x00	; 0
    11ec:	3c 83       	std	Y+4, r19	; 0x04
    11ee:	2b 83       	std	Y+3, r18	; 0x03
    11f0:	8b 81       	ldd	r24, Y+3	; 0x03
    11f2:	9c 81       	ldd	r25, Y+4	; 0x04
    11f4:	81 30       	cpi	r24, 0x01	; 1
    11f6:	91 05       	cpc	r25, r1
    11f8:	49 f1       	breq	.+82     	; 0x124c <MDIO_voidTogglePinValue+0x86>
    11fa:	2b 81       	ldd	r18, Y+3	; 0x03
    11fc:	3c 81       	ldd	r19, Y+4	; 0x04
    11fe:	22 30       	cpi	r18, 0x02	; 2
    1200:	31 05       	cpc	r19, r1
    1202:	2c f4       	brge	.+10     	; 0x120e <MDIO_voidTogglePinValue+0x48>
    1204:	8b 81       	ldd	r24, Y+3	; 0x03
    1206:	9c 81       	ldd	r25, Y+4	; 0x04
    1208:	00 97       	sbiw	r24, 0x00	; 0
    120a:	61 f0       	breq	.+24     	; 0x1224 <MDIO_voidTogglePinValue+0x5e>
    120c:	5a c0       	rjmp	.+180    	; 0x12c2 <MDIO_voidTogglePinValue+0xfc>
    120e:	2b 81       	ldd	r18, Y+3	; 0x03
    1210:	3c 81       	ldd	r19, Y+4	; 0x04
    1212:	22 30       	cpi	r18, 0x02	; 2
    1214:	31 05       	cpc	r19, r1
    1216:	71 f1       	breq	.+92     	; 0x1274 <MDIO_voidTogglePinValue+0xae>
    1218:	8b 81       	ldd	r24, Y+3	; 0x03
    121a:	9c 81       	ldd	r25, Y+4	; 0x04
    121c:	83 30       	cpi	r24, 0x03	; 3
    121e:	91 05       	cpc	r25, r1
    1220:	e9 f1       	breq	.+122    	; 0x129c <MDIO_voidTogglePinValue+0xd6>
    1222:	4f c0       	rjmp	.+158    	; 0x12c2 <MDIO_voidTogglePinValue+0xfc>
		{
		case DIO_PORTA:
			TOGGLE_BIT(PORTA_REG,A_PINID);
    1224:	ab e3       	ldi	r26, 0x3B	; 59
    1226:	b0 e0       	ldi	r27, 0x00	; 0
    1228:	eb e3       	ldi	r30, 0x3B	; 59
    122a:	f0 e0       	ldi	r31, 0x00	; 0
    122c:	80 81       	ld	r24, Z
    122e:	48 2f       	mov	r20, r24
    1230:	8a 81       	ldd	r24, Y+2	; 0x02
    1232:	28 2f       	mov	r18, r24
    1234:	30 e0       	ldi	r19, 0x00	; 0
    1236:	81 e0       	ldi	r24, 0x01	; 1
    1238:	90 e0       	ldi	r25, 0x00	; 0
    123a:	02 2e       	mov	r0, r18
    123c:	02 c0       	rjmp	.+4      	; 0x1242 <MDIO_voidTogglePinValue+0x7c>
    123e:	88 0f       	add	r24, r24
    1240:	99 1f       	adc	r25, r25
    1242:	0a 94       	dec	r0
    1244:	e2 f7       	brpl	.-8      	; 0x123e <MDIO_voidTogglePinValue+0x78>
    1246:	84 27       	eor	r24, r20
    1248:	8c 93       	st	X, r24
    124a:	3b c0       	rjmp	.+118    	; 0x12c2 <MDIO_voidTogglePinValue+0xfc>
			break;
		case DIO_PORTB:
			TOGGLE_BIT(PORTB_REG,A_PINID);
    124c:	a8 e3       	ldi	r26, 0x38	; 56
    124e:	b0 e0       	ldi	r27, 0x00	; 0
    1250:	e8 e3       	ldi	r30, 0x38	; 56
    1252:	f0 e0       	ldi	r31, 0x00	; 0
    1254:	80 81       	ld	r24, Z
    1256:	48 2f       	mov	r20, r24
    1258:	8a 81       	ldd	r24, Y+2	; 0x02
    125a:	28 2f       	mov	r18, r24
    125c:	30 e0       	ldi	r19, 0x00	; 0
    125e:	81 e0       	ldi	r24, 0x01	; 1
    1260:	90 e0       	ldi	r25, 0x00	; 0
    1262:	02 2e       	mov	r0, r18
    1264:	02 c0       	rjmp	.+4      	; 0x126a <MDIO_voidTogglePinValue+0xa4>
    1266:	88 0f       	add	r24, r24
    1268:	99 1f       	adc	r25, r25
    126a:	0a 94       	dec	r0
    126c:	e2 f7       	brpl	.-8      	; 0x1266 <MDIO_voidTogglePinValue+0xa0>
    126e:	84 27       	eor	r24, r20
    1270:	8c 93       	st	X, r24
    1272:	27 c0       	rjmp	.+78     	; 0x12c2 <MDIO_voidTogglePinValue+0xfc>
			break;
		case DIO_PORTC:
			TOGGLE_BIT(PORTC_REG,A_PINID);
    1274:	a5 e3       	ldi	r26, 0x35	; 53
    1276:	b0 e0       	ldi	r27, 0x00	; 0
    1278:	e5 e3       	ldi	r30, 0x35	; 53
    127a:	f0 e0       	ldi	r31, 0x00	; 0
    127c:	80 81       	ld	r24, Z
    127e:	48 2f       	mov	r20, r24
    1280:	8a 81       	ldd	r24, Y+2	; 0x02
    1282:	28 2f       	mov	r18, r24
    1284:	30 e0       	ldi	r19, 0x00	; 0
    1286:	81 e0       	ldi	r24, 0x01	; 1
    1288:	90 e0       	ldi	r25, 0x00	; 0
    128a:	02 2e       	mov	r0, r18
    128c:	02 c0       	rjmp	.+4      	; 0x1292 <MDIO_voidTogglePinValue+0xcc>
    128e:	88 0f       	add	r24, r24
    1290:	99 1f       	adc	r25, r25
    1292:	0a 94       	dec	r0
    1294:	e2 f7       	brpl	.-8      	; 0x128e <MDIO_voidTogglePinValue+0xc8>
    1296:	84 27       	eor	r24, r20
    1298:	8c 93       	st	X, r24
    129a:	13 c0       	rjmp	.+38     	; 0x12c2 <MDIO_voidTogglePinValue+0xfc>
			break;
		case DIO_PORTD:
			TOGGLE_BIT(PORTD_REG,A_PINID);
    129c:	a2 e3       	ldi	r26, 0x32	; 50
    129e:	b0 e0       	ldi	r27, 0x00	; 0
    12a0:	e2 e3       	ldi	r30, 0x32	; 50
    12a2:	f0 e0       	ldi	r31, 0x00	; 0
    12a4:	80 81       	ld	r24, Z
    12a6:	48 2f       	mov	r20, r24
    12a8:	8a 81       	ldd	r24, Y+2	; 0x02
    12aa:	28 2f       	mov	r18, r24
    12ac:	30 e0       	ldi	r19, 0x00	; 0
    12ae:	81 e0       	ldi	r24, 0x01	; 1
    12b0:	90 e0       	ldi	r25, 0x00	; 0
    12b2:	02 2e       	mov	r0, r18
    12b4:	02 c0       	rjmp	.+4      	; 0x12ba <MDIO_voidTogglePinValue+0xf4>
    12b6:	88 0f       	add	r24, r24
    12b8:	99 1f       	adc	r25, r25
    12ba:	0a 94       	dec	r0
    12bc:	e2 f7       	brpl	.-8      	; 0x12b6 <MDIO_voidTogglePinValue+0xf0>
    12be:	84 27       	eor	r24, r20
    12c0:	8c 93       	st	X, r24
			break;
		default:
			break;
		}
	}
}
    12c2:	0f 90       	pop	r0
    12c4:	0f 90       	pop	r0
    12c6:	0f 90       	pop	r0
    12c8:	0f 90       	pop	r0
    12ca:	cf 91       	pop	r28
    12cc:	df 91       	pop	r29
    12ce:	08 95       	ret

000012d0 <MDIO_voidSetPortDirection>:

void MDIO_voidSetPortDirection (DIO_PORT_e A_DIOPort, u8 A_u8Direction)
{
    12d0:	df 93       	push	r29
    12d2:	cf 93       	push	r28
    12d4:	00 d0       	rcall	.+0      	; 0x12d6 <MDIO_voidSetPortDirection+0x6>
    12d6:	00 d0       	rcall	.+0      	; 0x12d8 <MDIO_voidSetPortDirection+0x8>
    12d8:	cd b7       	in	r28, 0x3d	; 61
    12da:	de b7       	in	r29, 0x3e	; 62
    12dc:	89 83       	std	Y+1, r24	; 0x01
    12de:	6a 83       	std	Y+2, r22	; 0x02
	if ((A_DIOPort <= DIO_PORTD))
    12e0:	89 81       	ldd	r24, Y+1	; 0x01
    12e2:	84 30       	cpi	r24, 0x04	; 4
    12e4:	90 f5       	brcc	.+100    	; 0x134a <MDIO_voidSetPortDirection+0x7a>
	{
		switch (A_DIOPort)
    12e6:	89 81       	ldd	r24, Y+1	; 0x01
    12e8:	28 2f       	mov	r18, r24
    12ea:	30 e0       	ldi	r19, 0x00	; 0
    12ec:	3c 83       	std	Y+4, r19	; 0x04
    12ee:	2b 83       	std	Y+3, r18	; 0x03
    12f0:	8b 81       	ldd	r24, Y+3	; 0x03
    12f2:	9c 81       	ldd	r25, Y+4	; 0x04
    12f4:	81 30       	cpi	r24, 0x01	; 1
    12f6:	91 05       	cpc	r25, r1
    12f8:	d1 f0       	breq	.+52     	; 0x132e <MDIO_voidSetPortDirection+0x5e>
    12fa:	2b 81       	ldd	r18, Y+3	; 0x03
    12fc:	3c 81       	ldd	r19, Y+4	; 0x04
    12fe:	22 30       	cpi	r18, 0x02	; 2
    1300:	31 05       	cpc	r19, r1
    1302:	2c f4       	brge	.+10     	; 0x130e <MDIO_voidSetPortDirection+0x3e>
    1304:	8b 81       	ldd	r24, Y+3	; 0x03
    1306:	9c 81       	ldd	r25, Y+4	; 0x04
    1308:	00 97       	sbiw	r24, 0x00	; 0
    130a:	61 f0       	breq	.+24     	; 0x1324 <MDIO_voidSetPortDirection+0x54>
    130c:	1e c0       	rjmp	.+60     	; 0x134a <MDIO_voidSetPortDirection+0x7a>
    130e:	2b 81       	ldd	r18, Y+3	; 0x03
    1310:	3c 81       	ldd	r19, Y+4	; 0x04
    1312:	22 30       	cpi	r18, 0x02	; 2
    1314:	31 05       	cpc	r19, r1
    1316:	81 f0       	breq	.+32     	; 0x1338 <MDIO_voidSetPortDirection+0x68>
    1318:	8b 81       	ldd	r24, Y+3	; 0x03
    131a:	9c 81       	ldd	r25, Y+4	; 0x04
    131c:	83 30       	cpi	r24, 0x03	; 3
    131e:	91 05       	cpc	r25, r1
    1320:	81 f0       	breq	.+32     	; 0x1342 <MDIO_voidSetPortDirection+0x72>
    1322:	13 c0       	rjmp	.+38     	; 0x134a <MDIO_voidSetPortDirection+0x7a>
		{
		case DIO_PORTA:
			DDRA_REG = A_u8Direction;
    1324:	ea e3       	ldi	r30, 0x3A	; 58
    1326:	f0 e0       	ldi	r31, 0x00	; 0
    1328:	8a 81       	ldd	r24, Y+2	; 0x02
    132a:	80 83       	st	Z, r24
    132c:	0e c0       	rjmp	.+28     	; 0x134a <MDIO_voidSetPortDirection+0x7a>
			break;
		case DIO_PORTB:
			DDRB_REG = A_u8Direction;
    132e:	e7 e3       	ldi	r30, 0x37	; 55
    1330:	f0 e0       	ldi	r31, 0x00	; 0
    1332:	8a 81       	ldd	r24, Y+2	; 0x02
    1334:	80 83       	st	Z, r24
    1336:	09 c0       	rjmp	.+18     	; 0x134a <MDIO_voidSetPortDirection+0x7a>
			break;
		case DIO_PORTC:
			DDRC_REG = A_u8Direction;
    1338:	e4 e3       	ldi	r30, 0x34	; 52
    133a:	f0 e0       	ldi	r31, 0x00	; 0
    133c:	8a 81       	ldd	r24, Y+2	; 0x02
    133e:	80 83       	st	Z, r24
    1340:	04 c0       	rjmp	.+8      	; 0x134a <MDIO_voidSetPortDirection+0x7a>
			break;
		case DIO_PORTD:
			DDRD_REG = A_u8Direction;
    1342:	e1 e3       	ldi	r30, 0x31	; 49
    1344:	f0 e0       	ldi	r31, 0x00	; 0
    1346:	8a 81       	ldd	r24, Y+2	; 0x02
    1348:	80 83       	st	Z, r24
			break;
		default:
			break;
		}
	}
}
    134a:	0f 90       	pop	r0
    134c:	0f 90       	pop	r0
    134e:	0f 90       	pop	r0
    1350:	0f 90       	pop	r0
    1352:	cf 91       	pop	r28
    1354:	df 91       	pop	r29
    1356:	08 95       	ret

00001358 <MDIO_voidSetPortValue>:

void MDIO_voidSetPortValue (DIO_PORT_e A_DIOPort, u8 A_u8Value)
{
    1358:	df 93       	push	r29
    135a:	cf 93       	push	r28
    135c:	00 d0       	rcall	.+0      	; 0x135e <MDIO_voidSetPortValue+0x6>
    135e:	00 d0       	rcall	.+0      	; 0x1360 <MDIO_voidSetPortValue+0x8>
    1360:	cd b7       	in	r28, 0x3d	; 61
    1362:	de b7       	in	r29, 0x3e	; 62
    1364:	89 83       	std	Y+1, r24	; 0x01
    1366:	6a 83       	std	Y+2, r22	; 0x02
	if ((A_DIOPort <= DIO_PORTD))
    1368:	89 81       	ldd	r24, Y+1	; 0x01
    136a:	84 30       	cpi	r24, 0x04	; 4
    136c:	90 f5       	brcc	.+100    	; 0x13d2 <MDIO_voidSetPortValue+0x7a>
	{
		switch (A_DIOPort)
    136e:	89 81       	ldd	r24, Y+1	; 0x01
    1370:	28 2f       	mov	r18, r24
    1372:	30 e0       	ldi	r19, 0x00	; 0
    1374:	3c 83       	std	Y+4, r19	; 0x04
    1376:	2b 83       	std	Y+3, r18	; 0x03
    1378:	8b 81       	ldd	r24, Y+3	; 0x03
    137a:	9c 81       	ldd	r25, Y+4	; 0x04
    137c:	81 30       	cpi	r24, 0x01	; 1
    137e:	91 05       	cpc	r25, r1
    1380:	d1 f0       	breq	.+52     	; 0x13b6 <MDIO_voidSetPortValue+0x5e>
    1382:	2b 81       	ldd	r18, Y+3	; 0x03
    1384:	3c 81       	ldd	r19, Y+4	; 0x04
    1386:	22 30       	cpi	r18, 0x02	; 2
    1388:	31 05       	cpc	r19, r1
    138a:	2c f4       	brge	.+10     	; 0x1396 <MDIO_voidSetPortValue+0x3e>
    138c:	8b 81       	ldd	r24, Y+3	; 0x03
    138e:	9c 81       	ldd	r25, Y+4	; 0x04
    1390:	00 97       	sbiw	r24, 0x00	; 0
    1392:	61 f0       	breq	.+24     	; 0x13ac <MDIO_voidSetPortValue+0x54>
    1394:	1e c0       	rjmp	.+60     	; 0x13d2 <MDIO_voidSetPortValue+0x7a>
    1396:	2b 81       	ldd	r18, Y+3	; 0x03
    1398:	3c 81       	ldd	r19, Y+4	; 0x04
    139a:	22 30       	cpi	r18, 0x02	; 2
    139c:	31 05       	cpc	r19, r1
    139e:	81 f0       	breq	.+32     	; 0x13c0 <MDIO_voidSetPortValue+0x68>
    13a0:	8b 81       	ldd	r24, Y+3	; 0x03
    13a2:	9c 81       	ldd	r25, Y+4	; 0x04
    13a4:	83 30       	cpi	r24, 0x03	; 3
    13a6:	91 05       	cpc	r25, r1
    13a8:	81 f0       	breq	.+32     	; 0x13ca <MDIO_voidSetPortValue+0x72>
    13aa:	13 c0       	rjmp	.+38     	; 0x13d2 <MDIO_voidSetPortValue+0x7a>
		{
		case DIO_PORTA:
			PORTA_REG = A_u8Value;
    13ac:	eb e3       	ldi	r30, 0x3B	; 59
    13ae:	f0 e0       	ldi	r31, 0x00	; 0
    13b0:	8a 81       	ldd	r24, Y+2	; 0x02
    13b2:	80 83       	st	Z, r24
    13b4:	0e c0       	rjmp	.+28     	; 0x13d2 <MDIO_voidSetPortValue+0x7a>
			break;
		case DIO_PORTB:
			PORTB_REG = A_u8Value;
    13b6:	e8 e3       	ldi	r30, 0x38	; 56
    13b8:	f0 e0       	ldi	r31, 0x00	; 0
    13ba:	8a 81       	ldd	r24, Y+2	; 0x02
    13bc:	80 83       	st	Z, r24
    13be:	09 c0       	rjmp	.+18     	; 0x13d2 <MDIO_voidSetPortValue+0x7a>
			break;
		case DIO_PORTC:
			PORTC_REG = A_u8Value;
    13c0:	e5 e3       	ldi	r30, 0x35	; 53
    13c2:	f0 e0       	ldi	r31, 0x00	; 0
    13c4:	8a 81       	ldd	r24, Y+2	; 0x02
    13c6:	80 83       	st	Z, r24
    13c8:	04 c0       	rjmp	.+8      	; 0x13d2 <MDIO_voidSetPortValue+0x7a>
			break;
		case DIO_PORTD:
			PORTD_REG = A_u8Value;
    13ca:	e2 e3       	ldi	r30, 0x32	; 50
    13cc:	f0 e0       	ldi	r31, 0x00	; 0
    13ce:	8a 81       	ldd	r24, Y+2	; 0x02
    13d0:	80 83       	st	Z, r24
			break;
		default:
			break;
		}
	}
}
    13d2:	0f 90       	pop	r0
    13d4:	0f 90       	pop	r0
    13d6:	0f 90       	pop	r0
    13d8:	0f 90       	pop	r0
    13da:	cf 91       	pop	r28
    13dc:	df 91       	pop	r29
    13de:	08 95       	ret

000013e0 <MDIO_voidInit>:


void MDIO_voidInit()
{
    13e0:	df 93       	push	r29
    13e2:	cf 93       	push	r28
    13e4:	cd b7       	in	r28, 0x3d	; 61
    13e6:	de b7       	in	r29, 0x3e	; 62

	DDRA_REG=CONC_BIT(PA7_INITIAL_DIRECTION,PA6_INITIAL_DIRECTION,PA5_INITIAL_DIRECTION,PA4_INITIAL_DIRECTION
    13e8:	ea e3       	ldi	r30, 0x3A	; 58
    13ea:	f0 e0       	ldi	r31, 0x00	; 0
    13ec:	10 82       	st	Z, r1
			,PA3_INITIAL_DIRECTION,PA2_INITIAL_DIRECTION,PA1_INITIAL_DIRECTION,PA0_INITIAL_DIRECTION);

	DDRB_REG=CONC_BIT(PB7_INITIAL_DIRECTION,PB6_INITIAL_DIRECTION,PB5_INITIAL_DIRECTION,PB4_INITIAL_DIRECTION
    13ee:	e7 e3       	ldi	r30, 0x37	; 55
    13f0:	f0 e0       	ldi	r31, 0x00	; 0
    13f2:	10 82       	st	Z, r1
			,PB3_INITIAL_DIRECTION,PB2_INITIAL_DIRECTION,PB1_INITIAL_DIRECTION,PB0_INITIAL_DIRECTION);

	DDRC_REG=CONC_BIT(PC7_INITIAL_DIRECTION,PC6_INITIAL_DIRECTION,PC5_INITIAL_DIRECTION,PC4_INITIAL_DIRECTION
    13f4:	e4 e3       	ldi	r30, 0x34	; 52
    13f6:	f0 e0       	ldi	r31, 0x00	; 0
    13f8:	8f e3       	ldi	r24, 0x3F	; 63
    13fa:	80 83       	st	Z, r24
			,PC3_INITIAL_DIRECTION,PC2_INITIAL_DIRECTION,PC1_INITIAL_DIRECTION,PC0_INITIAL_DIRECTION);

	DDRD_REG=CONC_BIT(PD7_INITIAL_DIRECTION,PD6_INITIAL_DIRECTION,PD5_INITIAL_DIRECTION,PD4_INITIAL_DIRECTION
    13fc:	e1 e3       	ldi	r30, 0x31	; 49
    13fe:	f0 e0       	ldi	r31, 0x00	; 0
    1400:	8f ef       	ldi	r24, 0xFF	; 255
    1402:	80 83       	st	Z, r24
			,PD3_INITIAL_DIRECTION,PD2_INITIAL_DIRECTION,PD1_INITIAL_DIRECTION,PD0_INITIAL_DIRECTION);

	PORTA_REG=CONC_BIT(PA7_INITIAL_DIRECTION,PA6_INITIAL_DIRECTION,PA5_INITIAL_DIRECTION,PA4_INITIAL_DIRECTION
    1404:	eb e3       	ldi	r30, 0x3B	; 59
    1406:	f0 e0       	ldi	r31, 0x00	; 0
    1408:	10 82       	st	Z, r1
			,PA3_INITIAL_DIRECTION,PA2_INITIAL_DIRECTION,PA1_INITIAL_DIRECTION,PA0_INITIAL_DIRECTION);

	PORTB_REG=CONC_BIT(PB7_INITIAL_DIRECTION,PB6_INITIAL_DIRECTION,PB5_INITIAL_DIRECTION,PB4_INITIAL_DIRECTION
    140a:	e8 e3       	ldi	r30, 0x38	; 56
    140c:	f0 e0       	ldi	r31, 0x00	; 0
    140e:	10 82       	st	Z, r1
			,PB3_INITIAL_DIRECTION,PB2_INITIAL_DIRECTION,PB1_INITIAL_DIRECTION,PB0_INITIAL_DIRECTION);

	PORTC_REG=CONC_BIT(PC7_INITIAL_DIRECTION,PC6_INITIAL_DIRECTION,PC5_INITIAL_DIRECTION,PC4_INITIAL_DIRECTION
    1410:	e5 e3       	ldi	r30, 0x35	; 53
    1412:	f0 e0       	ldi	r31, 0x00	; 0
    1414:	8f e3       	ldi	r24, 0x3F	; 63
    1416:	80 83       	st	Z, r24
			,PC3_INITIAL_DIRECTION,PC2_INITIAL_DIRECTION,PC1_INITIAL_DIRECTION,PC0_INITIAL_DIRECTION);

	PORTD_REG=CONC_BIT(PD7_INITIAL_DIRECTION,PD6_INITIAL_DIRECTION,PD5_INITIAL_DIRECTION,PD4_INITIAL_DIRECTION
    1418:	e2 e3       	ldi	r30, 0x32	; 50
    141a:	f0 e0       	ldi	r31, 0x00	; 0
    141c:	8f ef       	ldi	r24, 0xFF	; 255
    141e:	80 83       	st	Z, r24
			,PD3_INITIAL_DIRECTION,PD2_INITIAL_DIRECTION,PD1_INITIAL_DIRECTION,PD0_INITIAL_DIRECTION);



}
    1420:	cf 91       	pop	r28
    1422:	df 91       	pop	r29
    1424:	08 95       	ret

00001426 <MGI_voidEnable>:
#include "../Include/MCAL/GI/GI_private.h"
#include "../Include/MCAL/GI/GI_configuration.h"


void MGI_voidEnable (void)
{
    1426:	df 93       	push	r29
    1428:	cf 93       	push	r28
    142a:	cd b7       	in	r28, 0x3d	; 61
    142c:	de b7       	in	r29, 0x3e	; 62
	SET_BIT(SREG,GLOBAL_INTERRUPT_ENABLE_BIT);
    142e:	af e5       	ldi	r26, 0x5F	; 95
    1430:	b0 e0       	ldi	r27, 0x00	; 0
    1432:	ef e5       	ldi	r30, 0x5F	; 95
    1434:	f0 e0       	ldi	r31, 0x00	; 0
    1436:	80 81       	ld	r24, Z
    1438:	80 68       	ori	r24, 0x80	; 128
    143a:	8c 93       	st	X, r24
}
    143c:	cf 91       	pop	r28
    143e:	df 91       	pop	r29
    1440:	08 95       	ret

00001442 <MGI_voidDisable>:
void MGI_voidDisable (void)
{
    1442:	df 93       	push	r29
    1444:	cf 93       	push	r28
    1446:	cd b7       	in	r28, 0x3d	; 61
    1448:	de b7       	in	r29, 0x3e	; 62
	CLR_BIT(SREG,GLOBAL_INTERRUPT_ENABLE_BIT);
    144a:	af e5       	ldi	r26, 0x5F	; 95
    144c:	b0 e0       	ldi	r27, 0x00	; 0
    144e:	ef e5       	ldi	r30, 0x5F	; 95
    1450:	f0 e0       	ldi	r31, 0x00	; 0
    1452:	80 81       	ld	r24, Z
    1454:	8f 77       	andi	r24, 0x7F	; 127
    1456:	8c 93       	st	X, r24
}
    1458:	cf 91       	pop	r28
    145a:	df 91       	pop	r29
    145c:	08 95       	ret

0000145e <HLCD_voidSendCommand>:

#define F_CPU 8000000UL


void HLCD_voidSendCommand (u8 A_u8Command)
{
    145e:	df 93       	push	r29
    1460:	cf 93       	push	r28
    1462:	cd b7       	in	r28, 0x3d	; 61
    1464:	de b7       	in	r29, 0x3e	; 62
    1466:	2f 97       	sbiw	r28, 0x0f	; 15
    1468:	0f b6       	in	r0, 0x3f	; 63
    146a:	f8 94       	cli
    146c:	de bf       	out	0x3e, r29	; 62
    146e:	0f be       	out	0x3f, r0	; 63
    1470:	cd bf       	out	0x3d, r28	; 61
    1472:	8f 87       	std	Y+15, r24	; 0x0f
	// Send Command --> (RS --> LOW) - (RW --> LOW)
	MDIO_voidSetPinValue(LCD_CTRL_PORT, LCD_RS_PIN, DIO_RESET);
    1474:	82 e0       	ldi	r24, 0x02	; 2
    1476:	63 e0       	ldi	r22, 0x03	; 3
    1478:	40 e0       	ldi	r20, 0x00	; 0
    147a:	0e 94 3f 07 	call	0xe7e	; 0xe7e <MDIO_voidSetPinValue>
	MDIO_voidSetPinValue(LCD_CTRL_PORT, LCD_RW_PIN, DIO_RESET);
    147e:	82 e0       	ldi	r24, 0x02	; 2
    1480:	64 e0       	ldi	r22, 0x04	; 4
    1482:	40 e0       	ldi	r20, 0x00	; 0
    1484:	0e 94 3f 07 	call	0xe7e	; 0xe7e <MDIO_voidSetPinValue>

	// Sending the command
	MDIO_voidSetPortValue(LCD_DATA_PORT, A_u8Command);
    1488:	83 e0       	ldi	r24, 0x03	; 3
    148a:	6f 85       	ldd	r22, Y+15	; 0x0f
    148c:	0e 94 ac 09 	call	0x1358	; 0x1358 <MDIO_voidSetPortValue>

	// Apply Pulse on E Pin
	MDIO_voidSetPinValue(LCD_CTRL_PORT, LCD_E_PIN, DIO_SET);
    1490:	82 e0       	ldi	r24, 0x02	; 2
    1492:	65 e0       	ldi	r22, 0x05	; 5
    1494:	41 e0       	ldi	r20, 0x01	; 1
    1496:	0e 94 3f 07 	call	0xe7e	; 0xe7e <MDIO_voidSetPinValue>
    149a:	80 e0       	ldi	r24, 0x00	; 0
    149c:	90 e0       	ldi	r25, 0x00	; 0
    149e:	a0 e0       	ldi	r26, 0x00	; 0
    14a0:	b0 e4       	ldi	r27, 0x40	; 64
    14a2:	8b 87       	std	Y+11, r24	; 0x0b
    14a4:	9c 87       	std	Y+12, r25	; 0x0c
    14a6:	ad 87       	std	Y+13, r26	; 0x0d
    14a8:	be 87       	std	Y+14, r27	; 0x0e
 */
void
_delay_ms(double __ms)
{
	uint16_t __ticks;
	double __tmp = ((F_CPU) / 4e3) * __ms;
    14aa:	6b 85       	ldd	r22, Y+11	; 0x0b
    14ac:	7c 85       	ldd	r23, Y+12	; 0x0c
    14ae:	8d 85       	ldd	r24, Y+13	; 0x0d
    14b0:	9e 85       	ldd	r25, Y+14	; 0x0e
    14b2:	20 e0       	ldi	r18, 0x00	; 0
    14b4:	30 e0       	ldi	r19, 0x00	; 0
    14b6:	4a ef       	ldi	r20, 0xFA	; 250
    14b8:	54 e4       	ldi	r21, 0x44	; 68
    14ba:	0e 94 17 02 	call	0x42e	; 0x42e <__mulsf3>
    14be:	dc 01       	movw	r26, r24
    14c0:	cb 01       	movw	r24, r22
    14c2:	8f 83       	std	Y+7, r24	; 0x07
    14c4:	98 87       	std	Y+8, r25	; 0x08
    14c6:	a9 87       	std	Y+9, r26	; 0x09
    14c8:	ba 87       	std	Y+10, r27	; 0x0a
	if (__tmp < 1.0)
    14ca:	6f 81       	ldd	r22, Y+7	; 0x07
    14cc:	78 85       	ldd	r23, Y+8	; 0x08
    14ce:	89 85       	ldd	r24, Y+9	; 0x09
    14d0:	9a 85       	ldd	r25, Y+10	; 0x0a
    14d2:	20 e0       	ldi	r18, 0x00	; 0
    14d4:	30 e0       	ldi	r19, 0x00	; 0
    14d6:	40 e8       	ldi	r20, 0x80	; 128
    14d8:	5f e3       	ldi	r21, 0x3F	; 63
    14da:	0e 94 71 03 	call	0x6e2	; 0x6e2 <__ltsf2>
    14de:	88 23       	and	r24, r24
    14e0:	2c f4       	brge	.+10     	; 0x14ec <HLCD_voidSendCommand+0x8e>
		__ticks = 1;
    14e2:	81 e0       	ldi	r24, 0x01	; 1
    14e4:	90 e0       	ldi	r25, 0x00	; 0
    14e6:	9e 83       	std	Y+6, r25	; 0x06
    14e8:	8d 83       	std	Y+5, r24	; 0x05
    14ea:	3f c0       	rjmp	.+126    	; 0x156a <HLCD_voidSendCommand+0x10c>
	else if (__tmp > 65535)
    14ec:	6f 81       	ldd	r22, Y+7	; 0x07
    14ee:	78 85       	ldd	r23, Y+8	; 0x08
    14f0:	89 85       	ldd	r24, Y+9	; 0x09
    14f2:	9a 85       	ldd	r25, Y+10	; 0x0a
    14f4:	20 e0       	ldi	r18, 0x00	; 0
    14f6:	3f ef       	ldi	r19, 0xFF	; 255
    14f8:	4f e7       	ldi	r20, 0x7F	; 127
    14fa:	57 e4       	ldi	r21, 0x47	; 71
    14fc:	0e 94 11 03 	call	0x622	; 0x622 <__gtsf2>
    1500:	18 16       	cp	r1, r24
    1502:	4c f5       	brge	.+82     	; 0x1556 <HLCD_voidSendCommand+0xf8>
	{
		//	__ticks = requested delay in 1/10 ms
		__ticks = (uint16_t) (__ms * 10.0);
    1504:	6b 85       	ldd	r22, Y+11	; 0x0b
    1506:	7c 85       	ldd	r23, Y+12	; 0x0c
    1508:	8d 85       	ldd	r24, Y+13	; 0x0d
    150a:	9e 85       	ldd	r25, Y+14	; 0x0e
    150c:	20 e0       	ldi	r18, 0x00	; 0
    150e:	30 e0       	ldi	r19, 0x00	; 0
    1510:	40 e2       	ldi	r20, 0x20	; 32
    1512:	51 e4       	ldi	r21, 0x41	; 65
    1514:	0e 94 17 02 	call	0x42e	; 0x42e <__mulsf3>
    1518:	dc 01       	movw	r26, r24
    151a:	cb 01       	movw	r24, r22
    151c:	bc 01       	movw	r22, r24
    151e:	cd 01       	movw	r24, r26
    1520:	0e 94 41 00 	call	0x82	; 0x82 <__fixunssfsi>
    1524:	dc 01       	movw	r26, r24
    1526:	cb 01       	movw	r24, r22
    1528:	9e 83       	std	Y+6, r25	; 0x06
    152a:	8d 83       	std	Y+5, r24	; 0x05
    152c:	0f c0       	rjmp	.+30     	; 0x154c <HLCD_voidSendCommand+0xee>
    152e:	88 ec       	ldi	r24, 0xC8	; 200
    1530:	90 e0       	ldi	r25, 0x00	; 0
    1532:	9c 83       	std	Y+4, r25	; 0x04
    1534:	8b 83       	std	Y+3, r24	; 0x03
    milliseconds can be achieved.
 */
void
_delay_loop_2(uint16_t __count)
{
	__asm__ volatile (
    1536:	8b 81       	ldd	r24, Y+3	; 0x03
    1538:	9c 81       	ldd	r25, Y+4	; 0x04
    153a:	01 97       	sbiw	r24, 0x01	; 1
    153c:	f1 f7       	brne	.-4      	; 0x153a <HLCD_voidSendCommand+0xdc>
    153e:	9c 83       	std	Y+4, r25	; 0x04
    1540:	8b 83       	std	Y+3, r24	; 0x03
		while(__ticks)
		{
			// wait 1/10 ms
			_delay_loop_2(((F_CPU) / 4e3) / 10);
			__ticks --;
    1542:	8d 81       	ldd	r24, Y+5	; 0x05
    1544:	9e 81       	ldd	r25, Y+6	; 0x06
    1546:	01 97       	sbiw	r24, 0x01	; 1
    1548:	9e 83       	std	Y+6, r25	; 0x06
    154a:	8d 83       	std	Y+5, r24	; 0x05
		__ticks = 1;
	else if (__tmp > 65535)
	{
		//	__ticks = requested delay in 1/10 ms
		__ticks = (uint16_t) (__ms * 10.0);
		while(__ticks)
    154c:	8d 81       	ldd	r24, Y+5	; 0x05
    154e:	9e 81       	ldd	r25, Y+6	; 0x06
    1550:	00 97       	sbiw	r24, 0x00	; 0
    1552:	69 f7       	brne	.-38     	; 0x152e <HLCD_voidSendCommand+0xd0>
    1554:	14 c0       	rjmp	.+40     	; 0x157e <HLCD_voidSendCommand+0x120>
			__ticks --;
		}
		return;
	}
	else
		__ticks = (uint16_t)__tmp;
    1556:	6f 81       	ldd	r22, Y+7	; 0x07
    1558:	78 85       	ldd	r23, Y+8	; 0x08
    155a:	89 85       	ldd	r24, Y+9	; 0x09
    155c:	9a 85       	ldd	r25, Y+10	; 0x0a
    155e:	0e 94 41 00 	call	0x82	; 0x82 <__fixunssfsi>
    1562:	dc 01       	movw	r26, r24
    1564:	cb 01       	movw	r24, r22
    1566:	9e 83       	std	Y+6, r25	; 0x06
    1568:	8d 83       	std	Y+5, r24	; 0x05
    156a:	8d 81       	ldd	r24, Y+5	; 0x05
    156c:	9e 81       	ldd	r25, Y+6	; 0x06
    156e:	9a 83       	std	Y+2, r25	; 0x02
    1570:	89 83       	std	Y+1, r24	; 0x01
    1572:	89 81       	ldd	r24, Y+1	; 0x01
    1574:	9a 81       	ldd	r25, Y+2	; 0x02
    1576:	01 97       	sbiw	r24, 0x01	; 1
    1578:	f1 f7       	brne	.-4      	; 0x1576 <HLCD_voidSendCommand+0x118>
    157a:	9a 83       	std	Y+2, r25	; 0x02
    157c:	89 83       	std	Y+1, r24	; 0x01
	_delay_ms(2);
	MDIO_voidSetPinValue(LCD_CTRL_PORT, LCD_E_PIN, DIO_RESET);
    157e:	82 e0       	ldi	r24, 0x02	; 2
    1580:	65 e0       	ldi	r22, 0x05	; 5
    1582:	40 e0       	ldi	r20, 0x00	; 0
    1584:	0e 94 3f 07 	call	0xe7e	; 0xe7e <MDIO_voidSetPinValue>
}
    1588:	2f 96       	adiw	r28, 0x0f	; 15
    158a:	0f b6       	in	r0, 0x3f	; 63
    158c:	f8 94       	cli
    158e:	de bf       	out	0x3e, r29	; 62
    1590:	0f be       	out	0x3f, r0	; 63
    1592:	cd bf       	out	0x3d, r28	; 61
    1594:	cf 91       	pop	r28
    1596:	df 91       	pop	r29
    1598:	08 95       	ret

0000159a <HLCD_voidSendData>:

void HLCD_voidSendData (u8 A_u8Data)
{
    159a:	df 93       	push	r29
    159c:	cf 93       	push	r28
    159e:	cd b7       	in	r28, 0x3d	; 61
    15a0:	de b7       	in	r29, 0x3e	; 62
    15a2:	2f 97       	sbiw	r28, 0x0f	; 15
    15a4:	0f b6       	in	r0, 0x3f	; 63
    15a6:	f8 94       	cli
    15a8:	de bf       	out	0x3e, r29	; 62
    15aa:	0f be       	out	0x3f, r0	; 63
    15ac:	cd bf       	out	0x3d, r28	; 61
    15ae:	8f 87       	std	Y+15, r24	; 0x0f
	// Send Data --> (RS --> HIGH) - (RW --> LOW)
	MDIO_voidSetPinValue(LCD_CTRL_PORT, LCD_RS_PIN, DIO_SET);
    15b0:	82 e0       	ldi	r24, 0x02	; 2
    15b2:	63 e0       	ldi	r22, 0x03	; 3
    15b4:	41 e0       	ldi	r20, 0x01	; 1
    15b6:	0e 94 3f 07 	call	0xe7e	; 0xe7e <MDIO_voidSetPinValue>
	MDIO_voidSetPinValue(LCD_CTRL_PORT, LCD_RW_PIN, DIO_RESET);
    15ba:	82 e0       	ldi	r24, 0x02	; 2
    15bc:	64 e0       	ldi	r22, 0x04	; 4
    15be:	40 e0       	ldi	r20, 0x00	; 0
    15c0:	0e 94 3f 07 	call	0xe7e	; 0xe7e <MDIO_voidSetPinValue>

	// Sending the command
	MDIO_voidSetPortValue(LCD_DATA_PORT, A_u8Data);
    15c4:	83 e0       	ldi	r24, 0x03	; 3
    15c6:	6f 85       	ldd	r22, Y+15	; 0x0f
    15c8:	0e 94 ac 09 	call	0x1358	; 0x1358 <MDIO_voidSetPortValue>

	// Apply Pulse on E Pin
	MDIO_voidSetPinValue(LCD_CTRL_PORT, LCD_E_PIN, DIO_SET);
    15cc:	82 e0       	ldi	r24, 0x02	; 2
    15ce:	65 e0       	ldi	r22, 0x05	; 5
    15d0:	41 e0       	ldi	r20, 0x01	; 1
    15d2:	0e 94 3f 07 	call	0xe7e	; 0xe7e <MDIO_voidSetPinValue>
    15d6:	80 e0       	ldi	r24, 0x00	; 0
    15d8:	90 e0       	ldi	r25, 0x00	; 0
    15da:	a0 e0       	ldi	r26, 0x00	; 0
    15dc:	b0 e4       	ldi	r27, 0x40	; 64
    15de:	8b 87       	std	Y+11, r24	; 0x0b
    15e0:	9c 87       	std	Y+12, r25	; 0x0c
    15e2:	ad 87       	std	Y+13, r26	; 0x0d
    15e4:	be 87       	std	Y+14, r27	; 0x0e
 */
void
_delay_ms(double __ms)
{
	uint16_t __ticks;
	double __tmp = ((F_CPU) / 4e3) * __ms;
    15e6:	6b 85       	ldd	r22, Y+11	; 0x0b
    15e8:	7c 85       	ldd	r23, Y+12	; 0x0c
    15ea:	8d 85       	ldd	r24, Y+13	; 0x0d
    15ec:	9e 85       	ldd	r25, Y+14	; 0x0e
    15ee:	20 e0       	ldi	r18, 0x00	; 0
    15f0:	30 e0       	ldi	r19, 0x00	; 0
    15f2:	4a ef       	ldi	r20, 0xFA	; 250
    15f4:	54 e4       	ldi	r21, 0x44	; 68
    15f6:	0e 94 17 02 	call	0x42e	; 0x42e <__mulsf3>
    15fa:	dc 01       	movw	r26, r24
    15fc:	cb 01       	movw	r24, r22
    15fe:	8f 83       	std	Y+7, r24	; 0x07
    1600:	98 87       	std	Y+8, r25	; 0x08
    1602:	a9 87       	std	Y+9, r26	; 0x09
    1604:	ba 87       	std	Y+10, r27	; 0x0a
	if (__tmp < 1.0)
    1606:	6f 81       	ldd	r22, Y+7	; 0x07
    1608:	78 85       	ldd	r23, Y+8	; 0x08
    160a:	89 85       	ldd	r24, Y+9	; 0x09
    160c:	9a 85       	ldd	r25, Y+10	; 0x0a
    160e:	20 e0       	ldi	r18, 0x00	; 0
    1610:	30 e0       	ldi	r19, 0x00	; 0
    1612:	40 e8       	ldi	r20, 0x80	; 128
    1614:	5f e3       	ldi	r21, 0x3F	; 63
    1616:	0e 94 71 03 	call	0x6e2	; 0x6e2 <__ltsf2>
    161a:	88 23       	and	r24, r24
    161c:	2c f4       	brge	.+10     	; 0x1628 <HLCD_voidSendData+0x8e>
		__ticks = 1;
    161e:	81 e0       	ldi	r24, 0x01	; 1
    1620:	90 e0       	ldi	r25, 0x00	; 0
    1622:	9e 83       	std	Y+6, r25	; 0x06
    1624:	8d 83       	std	Y+5, r24	; 0x05
    1626:	3f c0       	rjmp	.+126    	; 0x16a6 <HLCD_voidSendData+0x10c>
	else if (__tmp > 65535)
    1628:	6f 81       	ldd	r22, Y+7	; 0x07
    162a:	78 85       	ldd	r23, Y+8	; 0x08
    162c:	89 85       	ldd	r24, Y+9	; 0x09
    162e:	9a 85       	ldd	r25, Y+10	; 0x0a
    1630:	20 e0       	ldi	r18, 0x00	; 0
    1632:	3f ef       	ldi	r19, 0xFF	; 255
    1634:	4f e7       	ldi	r20, 0x7F	; 127
    1636:	57 e4       	ldi	r21, 0x47	; 71
    1638:	0e 94 11 03 	call	0x622	; 0x622 <__gtsf2>
    163c:	18 16       	cp	r1, r24
    163e:	4c f5       	brge	.+82     	; 0x1692 <HLCD_voidSendData+0xf8>
	{
		//	__ticks = requested delay in 1/10 ms
		__ticks = (uint16_t) (__ms * 10.0);
    1640:	6b 85       	ldd	r22, Y+11	; 0x0b
    1642:	7c 85       	ldd	r23, Y+12	; 0x0c
    1644:	8d 85       	ldd	r24, Y+13	; 0x0d
    1646:	9e 85       	ldd	r25, Y+14	; 0x0e
    1648:	20 e0       	ldi	r18, 0x00	; 0
    164a:	30 e0       	ldi	r19, 0x00	; 0
    164c:	40 e2       	ldi	r20, 0x20	; 32
    164e:	51 e4       	ldi	r21, 0x41	; 65
    1650:	0e 94 17 02 	call	0x42e	; 0x42e <__mulsf3>
    1654:	dc 01       	movw	r26, r24
    1656:	cb 01       	movw	r24, r22
    1658:	bc 01       	movw	r22, r24
    165a:	cd 01       	movw	r24, r26
    165c:	0e 94 41 00 	call	0x82	; 0x82 <__fixunssfsi>
    1660:	dc 01       	movw	r26, r24
    1662:	cb 01       	movw	r24, r22
    1664:	9e 83       	std	Y+6, r25	; 0x06
    1666:	8d 83       	std	Y+5, r24	; 0x05
    1668:	0f c0       	rjmp	.+30     	; 0x1688 <HLCD_voidSendData+0xee>
    166a:	88 ec       	ldi	r24, 0xC8	; 200
    166c:	90 e0       	ldi	r25, 0x00	; 0
    166e:	9c 83       	std	Y+4, r25	; 0x04
    1670:	8b 83       	std	Y+3, r24	; 0x03
    1672:	8b 81       	ldd	r24, Y+3	; 0x03
    1674:	9c 81       	ldd	r25, Y+4	; 0x04
    1676:	01 97       	sbiw	r24, 0x01	; 1
    1678:	f1 f7       	brne	.-4      	; 0x1676 <HLCD_voidSendData+0xdc>
    167a:	9c 83       	std	Y+4, r25	; 0x04
    167c:	8b 83       	std	Y+3, r24	; 0x03
		while(__ticks)
		{
			// wait 1/10 ms
			_delay_loop_2(((F_CPU) / 4e3) / 10);
			__ticks --;
    167e:	8d 81       	ldd	r24, Y+5	; 0x05
    1680:	9e 81       	ldd	r25, Y+6	; 0x06
    1682:	01 97       	sbiw	r24, 0x01	; 1
    1684:	9e 83       	std	Y+6, r25	; 0x06
    1686:	8d 83       	std	Y+5, r24	; 0x05
		__ticks = 1;
	else if (__tmp > 65535)
	{
		//	__ticks = requested delay in 1/10 ms
		__ticks = (uint16_t) (__ms * 10.0);
		while(__ticks)
    1688:	8d 81       	ldd	r24, Y+5	; 0x05
    168a:	9e 81       	ldd	r25, Y+6	; 0x06
    168c:	00 97       	sbiw	r24, 0x00	; 0
    168e:	69 f7       	brne	.-38     	; 0x166a <HLCD_voidSendData+0xd0>
    1690:	14 c0       	rjmp	.+40     	; 0x16ba <HLCD_voidSendData+0x120>
			__ticks --;
		}
		return;
	}
	else
		__ticks = (uint16_t)__tmp;
    1692:	6f 81       	ldd	r22, Y+7	; 0x07
    1694:	78 85       	ldd	r23, Y+8	; 0x08
    1696:	89 85       	ldd	r24, Y+9	; 0x09
    1698:	9a 85       	ldd	r25, Y+10	; 0x0a
    169a:	0e 94 41 00 	call	0x82	; 0x82 <__fixunssfsi>
    169e:	dc 01       	movw	r26, r24
    16a0:	cb 01       	movw	r24, r22
    16a2:	9e 83       	std	Y+6, r25	; 0x06
    16a4:	8d 83       	std	Y+5, r24	; 0x05
    16a6:	8d 81       	ldd	r24, Y+5	; 0x05
    16a8:	9e 81       	ldd	r25, Y+6	; 0x06
    16aa:	9a 83       	std	Y+2, r25	; 0x02
    16ac:	89 83       	std	Y+1, r24	; 0x01
    16ae:	89 81       	ldd	r24, Y+1	; 0x01
    16b0:	9a 81       	ldd	r25, Y+2	; 0x02
    16b2:	01 97       	sbiw	r24, 0x01	; 1
    16b4:	f1 f7       	brne	.-4      	; 0x16b2 <HLCD_voidSendData+0x118>
    16b6:	9a 83       	std	Y+2, r25	; 0x02
    16b8:	89 83       	std	Y+1, r24	; 0x01
	_delay_ms(2);
	MDIO_voidSetPinValue(LCD_CTRL_PORT, LCD_E_PIN, DIO_RESET);
    16ba:	82 e0       	ldi	r24, 0x02	; 2
    16bc:	65 e0       	ldi	r22, 0x05	; 5
    16be:	40 e0       	ldi	r20, 0x00	; 0
    16c0:	0e 94 3f 07 	call	0xe7e	; 0xe7e <MDIO_voidSetPinValue>
}
    16c4:	2f 96       	adiw	r28, 0x0f	; 15
    16c6:	0f b6       	in	r0, 0x3f	; 63
    16c8:	f8 94       	cli
    16ca:	de bf       	out	0x3e, r29	; 62
    16cc:	0f be       	out	0x3f, r0	; 63
    16ce:	cd bf       	out	0x3d, r28	; 61
    16d0:	cf 91       	pop	r28
    16d2:	df 91       	pop	r29
    16d4:	08 95       	ret

000016d6 <HLCD_voidInit>:

void HLCD_voidInit (void)
{
    16d6:	0f 93       	push	r16
    16d8:	1f 93       	push	r17
    16da:	df 93       	push	r29
    16dc:	cf 93       	push	r28
    16de:	cd b7       	in	r28, 0x3d	; 61
    16e0:	de b7       	in	r29, 0x3e	; 62
    16e2:	c6 54       	subi	r28, 0x46	; 70
    16e4:	d0 40       	sbci	r29, 0x00	; 0
    16e6:	0f b6       	in	r0, 0x3f	; 63
    16e8:	f8 94       	cli
    16ea:	de bf       	out	0x3e, r29	; 62
    16ec:	0f be       	out	0x3f, r0	; 63
    16ee:	cd bf       	out	0x3d, r28	; 61
    16f0:	fe 01       	movw	r30, r28
    16f2:	ed 5b       	subi	r30, 0xBD	; 189
    16f4:	ff 4f       	sbci	r31, 0xFF	; 255
    16f6:	80 e0       	ldi	r24, 0x00	; 0
    16f8:	90 e0       	ldi	r25, 0x00	; 0
    16fa:	a0 ef       	ldi	r26, 0xF0	; 240
    16fc:	b1 e4       	ldi	r27, 0x41	; 65
    16fe:	80 83       	st	Z, r24
    1700:	91 83       	std	Z+1, r25	; 0x01
    1702:	a2 83       	std	Z+2, r26	; 0x02
    1704:	b3 83       	std	Z+3, r27	; 0x03
 */
void
_delay_ms(double __ms)
{
	uint16_t __ticks;
	double __tmp = ((F_CPU) / 4e3) * __ms;
    1706:	8e 01       	movw	r16, r28
    1708:	01 5c       	subi	r16, 0xC1	; 193
    170a:	1f 4f       	sbci	r17, 0xFF	; 255
    170c:	fe 01       	movw	r30, r28
    170e:	ed 5b       	subi	r30, 0xBD	; 189
    1710:	ff 4f       	sbci	r31, 0xFF	; 255
    1712:	60 81       	ld	r22, Z
    1714:	71 81       	ldd	r23, Z+1	; 0x01
    1716:	82 81       	ldd	r24, Z+2	; 0x02
    1718:	93 81       	ldd	r25, Z+3	; 0x03
    171a:	20 e0       	ldi	r18, 0x00	; 0
    171c:	30 e0       	ldi	r19, 0x00	; 0
    171e:	4a ef       	ldi	r20, 0xFA	; 250
    1720:	54 e4       	ldi	r21, 0x44	; 68
    1722:	0e 94 17 02 	call	0x42e	; 0x42e <__mulsf3>
    1726:	dc 01       	movw	r26, r24
    1728:	cb 01       	movw	r24, r22
    172a:	f8 01       	movw	r30, r16
    172c:	80 83       	st	Z, r24
    172e:	91 83       	std	Z+1, r25	; 0x01
    1730:	a2 83       	std	Z+2, r26	; 0x02
    1732:	b3 83       	std	Z+3, r27	; 0x03
	if (__tmp < 1.0)
    1734:	fe 01       	movw	r30, r28
    1736:	ff 96       	adiw	r30, 0x3f	; 63
    1738:	60 81       	ld	r22, Z
    173a:	71 81       	ldd	r23, Z+1	; 0x01
    173c:	82 81       	ldd	r24, Z+2	; 0x02
    173e:	93 81       	ldd	r25, Z+3	; 0x03
    1740:	20 e0       	ldi	r18, 0x00	; 0
    1742:	30 e0       	ldi	r19, 0x00	; 0
    1744:	40 e8       	ldi	r20, 0x80	; 128
    1746:	5f e3       	ldi	r21, 0x3F	; 63
    1748:	0e 94 71 03 	call	0x6e2	; 0x6e2 <__ltsf2>
    174c:	88 23       	and	r24, r24
    174e:	2c f4       	brge	.+10     	; 0x175a <HLCD_voidInit+0x84>
		__ticks = 1;
    1750:	81 e0       	ldi	r24, 0x01	; 1
    1752:	90 e0       	ldi	r25, 0x00	; 0
    1754:	9e af       	std	Y+62, r25	; 0x3e
    1756:	8d af       	std	Y+61, r24	; 0x3d
    1758:	46 c0       	rjmp	.+140    	; 0x17e6 <HLCD_voidInit+0x110>
	else if (__tmp > 65535)
    175a:	fe 01       	movw	r30, r28
    175c:	ff 96       	adiw	r30, 0x3f	; 63
    175e:	60 81       	ld	r22, Z
    1760:	71 81       	ldd	r23, Z+1	; 0x01
    1762:	82 81       	ldd	r24, Z+2	; 0x02
    1764:	93 81       	ldd	r25, Z+3	; 0x03
    1766:	20 e0       	ldi	r18, 0x00	; 0
    1768:	3f ef       	ldi	r19, 0xFF	; 255
    176a:	4f e7       	ldi	r20, 0x7F	; 127
    176c:	57 e4       	ldi	r21, 0x47	; 71
    176e:	0e 94 11 03 	call	0x622	; 0x622 <__gtsf2>
    1772:	18 16       	cp	r1, r24
    1774:	64 f5       	brge	.+88     	; 0x17ce <HLCD_voidInit+0xf8>
	{
		//	__ticks = requested delay in 1/10 ms
		__ticks = (uint16_t) (__ms * 10.0);
    1776:	fe 01       	movw	r30, r28
    1778:	ed 5b       	subi	r30, 0xBD	; 189
    177a:	ff 4f       	sbci	r31, 0xFF	; 255
    177c:	60 81       	ld	r22, Z
    177e:	71 81       	ldd	r23, Z+1	; 0x01
    1780:	82 81       	ldd	r24, Z+2	; 0x02
    1782:	93 81       	ldd	r25, Z+3	; 0x03
    1784:	20 e0       	ldi	r18, 0x00	; 0
    1786:	30 e0       	ldi	r19, 0x00	; 0
    1788:	40 e2       	ldi	r20, 0x20	; 32
    178a:	51 e4       	ldi	r21, 0x41	; 65
    178c:	0e 94 17 02 	call	0x42e	; 0x42e <__mulsf3>
    1790:	dc 01       	movw	r26, r24
    1792:	cb 01       	movw	r24, r22
    1794:	bc 01       	movw	r22, r24
    1796:	cd 01       	movw	r24, r26
    1798:	0e 94 41 00 	call	0x82	; 0x82 <__fixunssfsi>
    179c:	dc 01       	movw	r26, r24
    179e:	cb 01       	movw	r24, r22
    17a0:	9e af       	std	Y+62, r25	; 0x3e
    17a2:	8d af       	std	Y+61, r24	; 0x3d
    17a4:	0f c0       	rjmp	.+30     	; 0x17c4 <HLCD_voidInit+0xee>
    17a6:	88 ec       	ldi	r24, 0xC8	; 200
    17a8:	90 e0       	ldi	r25, 0x00	; 0
    17aa:	9c af       	std	Y+60, r25	; 0x3c
    17ac:	8b af       	std	Y+59, r24	; 0x3b
    17ae:	8b ad       	ldd	r24, Y+59	; 0x3b
    17b0:	9c ad       	ldd	r25, Y+60	; 0x3c
    17b2:	01 97       	sbiw	r24, 0x01	; 1
    17b4:	f1 f7       	brne	.-4      	; 0x17b2 <HLCD_voidInit+0xdc>
    17b6:	9c af       	std	Y+60, r25	; 0x3c
    17b8:	8b af       	std	Y+59, r24	; 0x3b
		while(__ticks)
		{
			// wait 1/10 ms
			_delay_loop_2(((F_CPU) / 4e3) / 10);
			__ticks --;
    17ba:	8d ad       	ldd	r24, Y+61	; 0x3d
    17bc:	9e ad       	ldd	r25, Y+62	; 0x3e
    17be:	01 97       	sbiw	r24, 0x01	; 1
    17c0:	9e af       	std	Y+62, r25	; 0x3e
    17c2:	8d af       	std	Y+61, r24	; 0x3d
		__ticks = 1;
	else if (__tmp > 65535)
	{
		//	__ticks = requested delay in 1/10 ms
		__ticks = (uint16_t) (__ms * 10.0);
		while(__ticks)
    17c4:	8d ad       	ldd	r24, Y+61	; 0x3d
    17c6:	9e ad       	ldd	r25, Y+62	; 0x3e
    17c8:	00 97       	sbiw	r24, 0x00	; 0
    17ca:	69 f7       	brne	.-38     	; 0x17a6 <HLCD_voidInit+0xd0>
    17cc:	16 c0       	rjmp	.+44     	; 0x17fa <HLCD_voidInit+0x124>
			__ticks --;
		}
		return;
	}
	else
		__ticks = (uint16_t)__tmp;
    17ce:	fe 01       	movw	r30, r28
    17d0:	ff 96       	adiw	r30, 0x3f	; 63
    17d2:	60 81       	ld	r22, Z
    17d4:	71 81       	ldd	r23, Z+1	; 0x01
    17d6:	82 81       	ldd	r24, Z+2	; 0x02
    17d8:	93 81       	ldd	r25, Z+3	; 0x03
    17da:	0e 94 41 00 	call	0x82	; 0x82 <__fixunssfsi>
    17de:	dc 01       	movw	r26, r24
    17e0:	cb 01       	movw	r24, r22
    17e2:	9e af       	std	Y+62, r25	; 0x3e
    17e4:	8d af       	std	Y+61, r24	; 0x3d
    17e6:	8d ad       	ldd	r24, Y+61	; 0x3d
    17e8:	9e ad       	ldd	r25, Y+62	; 0x3e
    17ea:	9a af       	std	Y+58, r25	; 0x3a
    17ec:	89 af       	std	Y+57, r24	; 0x39
    17ee:	89 ad       	ldd	r24, Y+57	; 0x39
    17f0:	9a ad       	ldd	r25, Y+58	; 0x3a
    17f2:	01 97       	sbiw	r24, 0x01	; 1
    17f4:	f1 f7       	brne	.-4      	; 0x17f2 <HLCD_voidInit+0x11c>
    17f6:	9a af       	std	Y+58, r25	; 0x3a
    17f8:	89 af       	std	Y+57, r24	; 0x39
	// Wait for more than 30ms after V DD rises to 4.5V
	_delay_ms(30);

	// Function Set Command
	HLCD_voidSendCommand(FUNCTION_SET);
    17fa:	88 e3       	ldi	r24, 0x38	; 56
    17fc:	0e 94 2f 0a 	call	0x145e	; 0x145e <HLCD_voidSendCommand>
    1800:	80 e0       	ldi	r24, 0x00	; 0
    1802:	90 e0       	ldi	r25, 0x00	; 0
    1804:	a0 e8       	ldi	r26, 0x80	; 128
    1806:	bf e3       	ldi	r27, 0x3F	; 63
    1808:	8d ab       	std	Y+53, r24	; 0x35
    180a:	9e ab       	std	Y+54, r25	; 0x36
    180c:	af ab       	std	Y+55, r26	; 0x37
    180e:	b8 af       	std	Y+56, r27	; 0x38
 */
void
_delay_ms(double __ms)
{
	uint16_t __ticks;
	double __tmp = ((F_CPU) / 4e3) * __ms;
    1810:	6d a9       	ldd	r22, Y+53	; 0x35
    1812:	7e a9       	ldd	r23, Y+54	; 0x36
    1814:	8f a9       	ldd	r24, Y+55	; 0x37
    1816:	98 ad       	ldd	r25, Y+56	; 0x38
    1818:	20 e0       	ldi	r18, 0x00	; 0
    181a:	30 e0       	ldi	r19, 0x00	; 0
    181c:	4a ef       	ldi	r20, 0xFA	; 250
    181e:	54 e4       	ldi	r21, 0x44	; 68
    1820:	0e 94 17 02 	call	0x42e	; 0x42e <__mulsf3>
    1824:	dc 01       	movw	r26, r24
    1826:	cb 01       	movw	r24, r22
    1828:	89 ab       	std	Y+49, r24	; 0x31
    182a:	9a ab       	std	Y+50, r25	; 0x32
    182c:	ab ab       	std	Y+51, r26	; 0x33
    182e:	bc ab       	std	Y+52, r27	; 0x34
	if (__tmp < 1.0)
    1830:	69 a9       	ldd	r22, Y+49	; 0x31
    1832:	7a a9       	ldd	r23, Y+50	; 0x32
    1834:	8b a9       	ldd	r24, Y+51	; 0x33
    1836:	9c a9       	ldd	r25, Y+52	; 0x34
    1838:	20 e0       	ldi	r18, 0x00	; 0
    183a:	30 e0       	ldi	r19, 0x00	; 0
    183c:	40 e8       	ldi	r20, 0x80	; 128
    183e:	5f e3       	ldi	r21, 0x3F	; 63
    1840:	0e 94 71 03 	call	0x6e2	; 0x6e2 <__ltsf2>
    1844:	88 23       	and	r24, r24
    1846:	2c f4       	brge	.+10     	; 0x1852 <HLCD_voidInit+0x17c>
		__ticks = 1;
    1848:	81 e0       	ldi	r24, 0x01	; 1
    184a:	90 e0       	ldi	r25, 0x00	; 0
    184c:	98 ab       	std	Y+48, r25	; 0x30
    184e:	8f a7       	std	Y+47, r24	; 0x2f
    1850:	3f c0       	rjmp	.+126    	; 0x18d0 <HLCD_voidInit+0x1fa>
	else if (__tmp > 65535)
    1852:	69 a9       	ldd	r22, Y+49	; 0x31
    1854:	7a a9       	ldd	r23, Y+50	; 0x32
    1856:	8b a9       	ldd	r24, Y+51	; 0x33
    1858:	9c a9       	ldd	r25, Y+52	; 0x34
    185a:	20 e0       	ldi	r18, 0x00	; 0
    185c:	3f ef       	ldi	r19, 0xFF	; 255
    185e:	4f e7       	ldi	r20, 0x7F	; 127
    1860:	57 e4       	ldi	r21, 0x47	; 71
    1862:	0e 94 11 03 	call	0x622	; 0x622 <__gtsf2>
    1866:	18 16       	cp	r1, r24
    1868:	4c f5       	brge	.+82     	; 0x18bc <HLCD_voidInit+0x1e6>
	{
		//	__ticks = requested delay in 1/10 ms
		__ticks = (uint16_t) (__ms * 10.0);
    186a:	6d a9       	ldd	r22, Y+53	; 0x35
    186c:	7e a9       	ldd	r23, Y+54	; 0x36
    186e:	8f a9       	ldd	r24, Y+55	; 0x37
    1870:	98 ad       	ldd	r25, Y+56	; 0x38
    1872:	20 e0       	ldi	r18, 0x00	; 0
    1874:	30 e0       	ldi	r19, 0x00	; 0
    1876:	40 e2       	ldi	r20, 0x20	; 32
    1878:	51 e4       	ldi	r21, 0x41	; 65
    187a:	0e 94 17 02 	call	0x42e	; 0x42e <__mulsf3>
    187e:	dc 01       	movw	r26, r24
    1880:	cb 01       	movw	r24, r22
    1882:	bc 01       	movw	r22, r24
    1884:	cd 01       	movw	r24, r26
    1886:	0e 94 41 00 	call	0x82	; 0x82 <__fixunssfsi>
    188a:	dc 01       	movw	r26, r24
    188c:	cb 01       	movw	r24, r22
    188e:	98 ab       	std	Y+48, r25	; 0x30
    1890:	8f a7       	std	Y+47, r24	; 0x2f
    1892:	0f c0       	rjmp	.+30     	; 0x18b2 <HLCD_voidInit+0x1dc>
    1894:	88 ec       	ldi	r24, 0xC8	; 200
    1896:	90 e0       	ldi	r25, 0x00	; 0
    1898:	9e a7       	std	Y+46, r25	; 0x2e
    189a:	8d a7       	std	Y+45, r24	; 0x2d
    189c:	8d a5       	ldd	r24, Y+45	; 0x2d
    189e:	9e a5       	ldd	r25, Y+46	; 0x2e
    18a0:	01 97       	sbiw	r24, 0x01	; 1
    18a2:	f1 f7       	brne	.-4      	; 0x18a0 <HLCD_voidInit+0x1ca>
    18a4:	9e a7       	std	Y+46, r25	; 0x2e
    18a6:	8d a7       	std	Y+45, r24	; 0x2d
		while(__ticks)
		{
			// wait 1/10 ms
			_delay_loop_2(((F_CPU) / 4e3) / 10);
			__ticks --;
    18a8:	8f a5       	ldd	r24, Y+47	; 0x2f
    18aa:	98 a9       	ldd	r25, Y+48	; 0x30
    18ac:	01 97       	sbiw	r24, 0x01	; 1
    18ae:	98 ab       	std	Y+48, r25	; 0x30
    18b0:	8f a7       	std	Y+47, r24	; 0x2f
		__ticks = 1;
	else if (__tmp > 65535)
	{
		//	__ticks = requested delay in 1/10 ms
		__ticks = (uint16_t) (__ms * 10.0);
		while(__ticks)
    18b2:	8f a5       	ldd	r24, Y+47	; 0x2f
    18b4:	98 a9       	ldd	r25, Y+48	; 0x30
    18b6:	00 97       	sbiw	r24, 0x00	; 0
    18b8:	69 f7       	brne	.-38     	; 0x1894 <HLCD_voidInit+0x1be>
    18ba:	14 c0       	rjmp	.+40     	; 0x18e4 <HLCD_voidInit+0x20e>
			__ticks --;
		}
		return;
	}
	else
		__ticks = (uint16_t)__tmp;
    18bc:	69 a9       	ldd	r22, Y+49	; 0x31
    18be:	7a a9       	ldd	r23, Y+50	; 0x32
    18c0:	8b a9       	ldd	r24, Y+51	; 0x33
    18c2:	9c a9       	ldd	r25, Y+52	; 0x34
    18c4:	0e 94 41 00 	call	0x82	; 0x82 <__fixunssfsi>
    18c8:	dc 01       	movw	r26, r24
    18ca:	cb 01       	movw	r24, r22
    18cc:	98 ab       	std	Y+48, r25	; 0x30
    18ce:	8f a7       	std	Y+47, r24	; 0x2f
    18d0:	8f a5       	ldd	r24, Y+47	; 0x2f
    18d2:	98 a9       	ldd	r25, Y+48	; 0x30
    18d4:	9c a7       	std	Y+44, r25	; 0x2c
    18d6:	8b a7       	std	Y+43, r24	; 0x2b
    18d8:	8b a5       	ldd	r24, Y+43	; 0x2b
    18da:	9c a5       	ldd	r25, Y+44	; 0x2c
    18dc:	01 97       	sbiw	r24, 0x01	; 1
    18de:	f1 f7       	brne	.-4      	; 0x18dc <HLCD_voidInit+0x206>
    18e0:	9c a7       	std	Y+44, r25	; 0x2c
    18e2:	8b a7       	std	Y+43, r24	; 0x2b
	//Wait for more than 39 us
	_delay_ms(1);

	// Display ON/OFF Control Command
	HLCD_voidSendCommand(DISPLAY_ON_OFF);
    18e4:	8f e0       	ldi	r24, 0x0F	; 15
    18e6:	0e 94 2f 0a 	call	0x145e	; 0x145e <HLCD_voidSendCommand>
    18ea:	80 e0       	ldi	r24, 0x00	; 0
    18ec:	90 e0       	ldi	r25, 0x00	; 0
    18ee:	a0 e8       	ldi	r26, 0x80	; 128
    18f0:	bf e3       	ldi	r27, 0x3F	; 63
    18f2:	8f a3       	std	Y+39, r24	; 0x27
    18f4:	98 a7       	std	Y+40, r25	; 0x28
    18f6:	a9 a7       	std	Y+41, r26	; 0x29
    18f8:	ba a7       	std	Y+42, r27	; 0x2a
 */
void
_delay_ms(double __ms)
{
	uint16_t __ticks;
	double __tmp = ((F_CPU) / 4e3) * __ms;
    18fa:	6f a1       	ldd	r22, Y+39	; 0x27
    18fc:	78 a5       	ldd	r23, Y+40	; 0x28
    18fe:	89 a5       	ldd	r24, Y+41	; 0x29
    1900:	9a a5       	ldd	r25, Y+42	; 0x2a
    1902:	20 e0       	ldi	r18, 0x00	; 0
    1904:	30 e0       	ldi	r19, 0x00	; 0
    1906:	4a ef       	ldi	r20, 0xFA	; 250
    1908:	54 e4       	ldi	r21, 0x44	; 68
    190a:	0e 94 17 02 	call	0x42e	; 0x42e <__mulsf3>
    190e:	dc 01       	movw	r26, r24
    1910:	cb 01       	movw	r24, r22
    1912:	8b a3       	std	Y+35, r24	; 0x23
    1914:	9c a3       	std	Y+36, r25	; 0x24
    1916:	ad a3       	std	Y+37, r26	; 0x25
    1918:	be a3       	std	Y+38, r27	; 0x26
	if (__tmp < 1.0)
    191a:	6b a1       	ldd	r22, Y+35	; 0x23
    191c:	7c a1       	ldd	r23, Y+36	; 0x24
    191e:	8d a1       	ldd	r24, Y+37	; 0x25
    1920:	9e a1       	ldd	r25, Y+38	; 0x26
    1922:	20 e0       	ldi	r18, 0x00	; 0
    1924:	30 e0       	ldi	r19, 0x00	; 0
    1926:	40 e8       	ldi	r20, 0x80	; 128
    1928:	5f e3       	ldi	r21, 0x3F	; 63
    192a:	0e 94 71 03 	call	0x6e2	; 0x6e2 <__ltsf2>
    192e:	88 23       	and	r24, r24
    1930:	2c f4       	brge	.+10     	; 0x193c <HLCD_voidInit+0x266>
		__ticks = 1;
    1932:	81 e0       	ldi	r24, 0x01	; 1
    1934:	90 e0       	ldi	r25, 0x00	; 0
    1936:	9a a3       	std	Y+34, r25	; 0x22
    1938:	89 a3       	std	Y+33, r24	; 0x21
    193a:	3f c0       	rjmp	.+126    	; 0x19ba <HLCD_voidInit+0x2e4>
	else if (__tmp > 65535)
    193c:	6b a1       	ldd	r22, Y+35	; 0x23
    193e:	7c a1       	ldd	r23, Y+36	; 0x24
    1940:	8d a1       	ldd	r24, Y+37	; 0x25
    1942:	9e a1       	ldd	r25, Y+38	; 0x26
    1944:	20 e0       	ldi	r18, 0x00	; 0
    1946:	3f ef       	ldi	r19, 0xFF	; 255
    1948:	4f e7       	ldi	r20, 0x7F	; 127
    194a:	57 e4       	ldi	r21, 0x47	; 71
    194c:	0e 94 11 03 	call	0x622	; 0x622 <__gtsf2>
    1950:	18 16       	cp	r1, r24
    1952:	4c f5       	brge	.+82     	; 0x19a6 <HLCD_voidInit+0x2d0>
	{
		//	__ticks = requested delay in 1/10 ms
		__ticks = (uint16_t) (__ms * 10.0);
    1954:	6f a1       	ldd	r22, Y+39	; 0x27
    1956:	78 a5       	ldd	r23, Y+40	; 0x28
    1958:	89 a5       	ldd	r24, Y+41	; 0x29
    195a:	9a a5       	ldd	r25, Y+42	; 0x2a
    195c:	20 e0       	ldi	r18, 0x00	; 0
    195e:	30 e0       	ldi	r19, 0x00	; 0
    1960:	40 e2       	ldi	r20, 0x20	; 32
    1962:	51 e4       	ldi	r21, 0x41	; 65
    1964:	0e 94 17 02 	call	0x42e	; 0x42e <__mulsf3>
    1968:	dc 01       	movw	r26, r24
    196a:	cb 01       	movw	r24, r22
    196c:	bc 01       	movw	r22, r24
    196e:	cd 01       	movw	r24, r26
    1970:	0e 94 41 00 	call	0x82	; 0x82 <__fixunssfsi>
    1974:	dc 01       	movw	r26, r24
    1976:	cb 01       	movw	r24, r22
    1978:	9a a3       	std	Y+34, r25	; 0x22
    197a:	89 a3       	std	Y+33, r24	; 0x21
    197c:	0f c0       	rjmp	.+30     	; 0x199c <HLCD_voidInit+0x2c6>
    197e:	88 ec       	ldi	r24, 0xC8	; 200
    1980:	90 e0       	ldi	r25, 0x00	; 0
    1982:	98 a3       	std	Y+32, r25	; 0x20
    1984:	8f 8f       	std	Y+31, r24	; 0x1f
    1986:	8f 8d       	ldd	r24, Y+31	; 0x1f
    1988:	98 a1       	ldd	r25, Y+32	; 0x20
    198a:	01 97       	sbiw	r24, 0x01	; 1
    198c:	f1 f7       	brne	.-4      	; 0x198a <HLCD_voidInit+0x2b4>
    198e:	98 a3       	std	Y+32, r25	; 0x20
    1990:	8f 8f       	std	Y+31, r24	; 0x1f
		while(__ticks)
		{
			// wait 1/10 ms
			_delay_loop_2(((F_CPU) / 4e3) / 10);
			__ticks --;
    1992:	89 a1       	ldd	r24, Y+33	; 0x21
    1994:	9a a1       	ldd	r25, Y+34	; 0x22
    1996:	01 97       	sbiw	r24, 0x01	; 1
    1998:	9a a3       	std	Y+34, r25	; 0x22
    199a:	89 a3       	std	Y+33, r24	; 0x21
		__ticks = 1;
	else if (__tmp > 65535)
	{
		//	__ticks = requested delay in 1/10 ms
		__ticks = (uint16_t) (__ms * 10.0);
		while(__ticks)
    199c:	89 a1       	ldd	r24, Y+33	; 0x21
    199e:	9a a1       	ldd	r25, Y+34	; 0x22
    19a0:	00 97       	sbiw	r24, 0x00	; 0
    19a2:	69 f7       	brne	.-38     	; 0x197e <HLCD_voidInit+0x2a8>
    19a4:	14 c0       	rjmp	.+40     	; 0x19ce <HLCD_voidInit+0x2f8>
			__ticks --;
		}
		return;
	}
	else
		__ticks = (uint16_t)__tmp;
    19a6:	6b a1       	ldd	r22, Y+35	; 0x23
    19a8:	7c a1       	ldd	r23, Y+36	; 0x24
    19aa:	8d a1       	ldd	r24, Y+37	; 0x25
    19ac:	9e a1       	ldd	r25, Y+38	; 0x26
    19ae:	0e 94 41 00 	call	0x82	; 0x82 <__fixunssfsi>
    19b2:	dc 01       	movw	r26, r24
    19b4:	cb 01       	movw	r24, r22
    19b6:	9a a3       	std	Y+34, r25	; 0x22
    19b8:	89 a3       	std	Y+33, r24	; 0x21
    19ba:	89 a1       	ldd	r24, Y+33	; 0x21
    19bc:	9a a1       	ldd	r25, Y+34	; 0x22
    19be:	9e 8f       	std	Y+30, r25	; 0x1e
    19c0:	8d 8f       	std	Y+29, r24	; 0x1d
    19c2:	8d 8d       	ldd	r24, Y+29	; 0x1d
    19c4:	9e 8d       	ldd	r25, Y+30	; 0x1e
    19c6:	01 97       	sbiw	r24, 0x01	; 1
    19c8:	f1 f7       	brne	.-4      	; 0x19c6 <HLCD_voidInit+0x2f0>
    19ca:	9e 8f       	std	Y+30, r25	; 0x1e
    19cc:	8d 8f       	std	Y+29, r24	; 0x1d
	//Wait for more than 39 us
	_delay_ms(1);

	// Display Clear Command
	HLCD_voidSendCommand(DISPLAY_CLEAR);
    19ce:	81 e0       	ldi	r24, 0x01	; 1
    19d0:	0e 94 2f 0a 	call	0x145e	; 0x145e <HLCD_voidSendCommand>
    19d4:	80 e0       	ldi	r24, 0x00	; 0
    19d6:	90 e0       	ldi	r25, 0x00	; 0
    19d8:	a0 e0       	ldi	r26, 0x00	; 0
    19da:	b0 e4       	ldi	r27, 0x40	; 64
    19dc:	89 8f       	std	Y+25, r24	; 0x19
    19de:	9a 8f       	std	Y+26, r25	; 0x1a
    19e0:	ab 8f       	std	Y+27, r26	; 0x1b
    19e2:	bc 8f       	std	Y+28, r27	; 0x1c
 */
void
_delay_ms(double __ms)
{
	uint16_t __ticks;
	double __tmp = ((F_CPU) / 4e3) * __ms;
    19e4:	69 8d       	ldd	r22, Y+25	; 0x19
    19e6:	7a 8d       	ldd	r23, Y+26	; 0x1a
    19e8:	8b 8d       	ldd	r24, Y+27	; 0x1b
    19ea:	9c 8d       	ldd	r25, Y+28	; 0x1c
    19ec:	20 e0       	ldi	r18, 0x00	; 0
    19ee:	30 e0       	ldi	r19, 0x00	; 0
    19f0:	4a ef       	ldi	r20, 0xFA	; 250
    19f2:	54 e4       	ldi	r21, 0x44	; 68
    19f4:	0e 94 17 02 	call	0x42e	; 0x42e <__mulsf3>
    19f8:	dc 01       	movw	r26, r24
    19fa:	cb 01       	movw	r24, r22
    19fc:	8d 8b       	std	Y+21, r24	; 0x15
    19fe:	9e 8b       	std	Y+22, r25	; 0x16
    1a00:	af 8b       	std	Y+23, r26	; 0x17
    1a02:	b8 8f       	std	Y+24, r27	; 0x18
	if (__tmp < 1.0)
    1a04:	6d 89       	ldd	r22, Y+21	; 0x15
    1a06:	7e 89       	ldd	r23, Y+22	; 0x16
    1a08:	8f 89       	ldd	r24, Y+23	; 0x17
    1a0a:	98 8d       	ldd	r25, Y+24	; 0x18
    1a0c:	20 e0       	ldi	r18, 0x00	; 0
    1a0e:	30 e0       	ldi	r19, 0x00	; 0
    1a10:	40 e8       	ldi	r20, 0x80	; 128
    1a12:	5f e3       	ldi	r21, 0x3F	; 63
    1a14:	0e 94 71 03 	call	0x6e2	; 0x6e2 <__ltsf2>
    1a18:	88 23       	and	r24, r24
    1a1a:	2c f4       	brge	.+10     	; 0x1a26 <HLCD_voidInit+0x350>
		__ticks = 1;
    1a1c:	81 e0       	ldi	r24, 0x01	; 1
    1a1e:	90 e0       	ldi	r25, 0x00	; 0
    1a20:	9c 8b       	std	Y+20, r25	; 0x14
    1a22:	8b 8b       	std	Y+19, r24	; 0x13
    1a24:	3f c0       	rjmp	.+126    	; 0x1aa4 <HLCD_voidInit+0x3ce>
	else if (__tmp > 65535)
    1a26:	6d 89       	ldd	r22, Y+21	; 0x15
    1a28:	7e 89       	ldd	r23, Y+22	; 0x16
    1a2a:	8f 89       	ldd	r24, Y+23	; 0x17
    1a2c:	98 8d       	ldd	r25, Y+24	; 0x18
    1a2e:	20 e0       	ldi	r18, 0x00	; 0
    1a30:	3f ef       	ldi	r19, 0xFF	; 255
    1a32:	4f e7       	ldi	r20, 0x7F	; 127
    1a34:	57 e4       	ldi	r21, 0x47	; 71
    1a36:	0e 94 11 03 	call	0x622	; 0x622 <__gtsf2>
    1a3a:	18 16       	cp	r1, r24
    1a3c:	4c f5       	brge	.+82     	; 0x1a90 <HLCD_voidInit+0x3ba>
	{
		//	__ticks = requested delay in 1/10 ms
		__ticks = (uint16_t) (__ms * 10.0);
    1a3e:	69 8d       	ldd	r22, Y+25	; 0x19
    1a40:	7a 8d       	ldd	r23, Y+26	; 0x1a
    1a42:	8b 8d       	ldd	r24, Y+27	; 0x1b
    1a44:	9c 8d       	ldd	r25, Y+28	; 0x1c
    1a46:	20 e0       	ldi	r18, 0x00	; 0
    1a48:	30 e0       	ldi	r19, 0x00	; 0
    1a4a:	40 e2       	ldi	r20, 0x20	; 32
    1a4c:	51 e4       	ldi	r21, 0x41	; 65
    1a4e:	0e 94 17 02 	call	0x42e	; 0x42e <__mulsf3>
    1a52:	dc 01       	movw	r26, r24
    1a54:	cb 01       	movw	r24, r22
    1a56:	bc 01       	movw	r22, r24
    1a58:	cd 01       	movw	r24, r26
    1a5a:	0e 94 41 00 	call	0x82	; 0x82 <__fixunssfsi>
    1a5e:	dc 01       	movw	r26, r24
    1a60:	cb 01       	movw	r24, r22
    1a62:	9c 8b       	std	Y+20, r25	; 0x14
    1a64:	8b 8b       	std	Y+19, r24	; 0x13
    1a66:	0f c0       	rjmp	.+30     	; 0x1a86 <HLCD_voidInit+0x3b0>
    1a68:	88 ec       	ldi	r24, 0xC8	; 200
    1a6a:	90 e0       	ldi	r25, 0x00	; 0
    1a6c:	9a 8b       	std	Y+18, r25	; 0x12
    1a6e:	89 8b       	std	Y+17, r24	; 0x11
    1a70:	89 89       	ldd	r24, Y+17	; 0x11
    1a72:	9a 89       	ldd	r25, Y+18	; 0x12
    1a74:	01 97       	sbiw	r24, 0x01	; 1
    1a76:	f1 f7       	brne	.-4      	; 0x1a74 <HLCD_voidInit+0x39e>
    1a78:	9a 8b       	std	Y+18, r25	; 0x12
    1a7a:	89 8b       	std	Y+17, r24	; 0x11
		while(__ticks)
		{
			// wait 1/10 ms
			_delay_loop_2(((F_CPU) / 4e3) / 10);
			__ticks --;
    1a7c:	8b 89       	ldd	r24, Y+19	; 0x13
    1a7e:	9c 89       	ldd	r25, Y+20	; 0x14
    1a80:	01 97       	sbiw	r24, 0x01	; 1
    1a82:	9c 8b       	std	Y+20, r25	; 0x14
    1a84:	8b 8b       	std	Y+19, r24	; 0x13
		__ticks = 1;
	else if (__tmp > 65535)
	{
		//	__ticks = requested delay in 1/10 ms
		__ticks = (uint16_t) (__ms * 10.0);
		while(__ticks)
    1a86:	8b 89       	ldd	r24, Y+19	; 0x13
    1a88:	9c 89       	ldd	r25, Y+20	; 0x14
    1a8a:	00 97       	sbiw	r24, 0x00	; 0
    1a8c:	69 f7       	brne	.-38     	; 0x1a68 <HLCD_voidInit+0x392>
    1a8e:	14 c0       	rjmp	.+40     	; 0x1ab8 <HLCD_voidInit+0x3e2>
			__ticks --;
		}
		return;
	}
	else
		__ticks = (uint16_t)__tmp;
    1a90:	6d 89       	ldd	r22, Y+21	; 0x15
    1a92:	7e 89       	ldd	r23, Y+22	; 0x16
    1a94:	8f 89       	ldd	r24, Y+23	; 0x17
    1a96:	98 8d       	ldd	r25, Y+24	; 0x18
    1a98:	0e 94 41 00 	call	0x82	; 0x82 <__fixunssfsi>
    1a9c:	dc 01       	movw	r26, r24
    1a9e:	cb 01       	movw	r24, r22
    1aa0:	9c 8b       	std	Y+20, r25	; 0x14
    1aa2:	8b 8b       	std	Y+19, r24	; 0x13
    1aa4:	8b 89       	ldd	r24, Y+19	; 0x13
    1aa6:	9c 89       	ldd	r25, Y+20	; 0x14
    1aa8:	98 8b       	std	Y+16, r25	; 0x10
    1aaa:	8f 87       	std	Y+15, r24	; 0x0f
    1aac:	8f 85       	ldd	r24, Y+15	; 0x0f
    1aae:	98 89       	ldd	r25, Y+16	; 0x10
    1ab0:	01 97       	sbiw	r24, 0x01	; 1
    1ab2:	f1 f7       	brne	.-4      	; 0x1ab0 <HLCD_voidInit+0x3da>
    1ab4:	98 8b       	std	Y+16, r25	; 0x10
    1ab6:	8f 87       	std	Y+15, r24	; 0x0f
	//Wait for more than 1.53ms
	_delay_ms(2);

	// Entry Mode Set Command
	HLCD_voidSendCommand(ENTRY_MODE_SET);
    1ab8:	86 e0       	ldi	r24, 0x06	; 6
    1aba:	0e 94 2f 0a 	call	0x145e	; 0x145e <HLCD_voidSendCommand>
    1abe:	80 e0       	ldi	r24, 0x00	; 0
    1ac0:	90 e0       	ldi	r25, 0x00	; 0
    1ac2:	a0 e8       	ldi	r26, 0x80	; 128
    1ac4:	bf e3       	ldi	r27, 0x3F	; 63
    1ac6:	8b 87       	std	Y+11, r24	; 0x0b
    1ac8:	9c 87       	std	Y+12, r25	; 0x0c
    1aca:	ad 87       	std	Y+13, r26	; 0x0d
    1acc:	be 87       	std	Y+14, r27	; 0x0e
 */
void
_delay_ms(double __ms)
{
	uint16_t __ticks;
	double __tmp = ((F_CPU) / 4e3) * __ms;
    1ace:	6b 85       	ldd	r22, Y+11	; 0x0b
    1ad0:	7c 85       	ldd	r23, Y+12	; 0x0c
    1ad2:	8d 85       	ldd	r24, Y+13	; 0x0d
    1ad4:	9e 85       	ldd	r25, Y+14	; 0x0e
    1ad6:	20 e0       	ldi	r18, 0x00	; 0
    1ad8:	30 e0       	ldi	r19, 0x00	; 0
    1ada:	4a ef       	ldi	r20, 0xFA	; 250
    1adc:	54 e4       	ldi	r21, 0x44	; 68
    1ade:	0e 94 17 02 	call	0x42e	; 0x42e <__mulsf3>
    1ae2:	dc 01       	movw	r26, r24
    1ae4:	cb 01       	movw	r24, r22
    1ae6:	8f 83       	std	Y+7, r24	; 0x07
    1ae8:	98 87       	std	Y+8, r25	; 0x08
    1aea:	a9 87       	std	Y+9, r26	; 0x09
    1aec:	ba 87       	std	Y+10, r27	; 0x0a
	if (__tmp < 1.0)
    1aee:	6f 81       	ldd	r22, Y+7	; 0x07
    1af0:	78 85       	ldd	r23, Y+8	; 0x08
    1af2:	89 85       	ldd	r24, Y+9	; 0x09
    1af4:	9a 85       	ldd	r25, Y+10	; 0x0a
    1af6:	20 e0       	ldi	r18, 0x00	; 0
    1af8:	30 e0       	ldi	r19, 0x00	; 0
    1afa:	40 e8       	ldi	r20, 0x80	; 128
    1afc:	5f e3       	ldi	r21, 0x3F	; 63
    1afe:	0e 94 71 03 	call	0x6e2	; 0x6e2 <__ltsf2>
    1b02:	88 23       	and	r24, r24
    1b04:	2c f4       	brge	.+10     	; 0x1b10 <HLCD_voidInit+0x43a>
		__ticks = 1;
    1b06:	81 e0       	ldi	r24, 0x01	; 1
    1b08:	90 e0       	ldi	r25, 0x00	; 0
    1b0a:	9e 83       	std	Y+6, r25	; 0x06
    1b0c:	8d 83       	std	Y+5, r24	; 0x05
    1b0e:	3f c0       	rjmp	.+126    	; 0x1b8e <HLCD_voidInit+0x4b8>
	else if (__tmp > 65535)
    1b10:	6f 81       	ldd	r22, Y+7	; 0x07
    1b12:	78 85       	ldd	r23, Y+8	; 0x08
    1b14:	89 85       	ldd	r24, Y+9	; 0x09
    1b16:	9a 85       	ldd	r25, Y+10	; 0x0a
    1b18:	20 e0       	ldi	r18, 0x00	; 0
    1b1a:	3f ef       	ldi	r19, 0xFF	; 255
    1b1c:	4f e7       	ldi	r20, 0x7F	; 127
    1b1e:	57 e4       	ldi	r21, 0x47	; 71
    1b20:	0e 94 11 03 	call	0x622	; 0x622 <__gtsf2>
    1b24:	18 16       	cp	r1, r24
    1b26:	4c f5       	brge	.+82     	; 0x1b7a <HLCD_voidInit+0x4a4>
	{
		//	__ticks = requested delay in 1/10 ms
		__ticks = (uint16_t) (__ms * 10.0);
    1b28:	6b 85       	ldd	r22, Y+11	; 0x0b
    1b2a:	7c 85       	ldd	r23, Y+12	; 0x0c
    1b2c:	8d 85       	ldd	r24, Y+13	; 0x0d
    1b2e:	9e 85       	ldd	r25, Y+14	; 0x0e
    1b30:	20 e0       	ldi	r18, 0x00	; 0
    1b32:	30 e0       	ldi	r19, 0x00	; 0
    1b34:	40 e2       	ldi	r20, 0x20	; 32
    1b36:	51 e4       	ldi	r21, 0x41	; 65
    1b38:	0e 94 17 02 	call	0x42e	; 0x42e <__mulsf3>
    1b3c:	dc 01       	movw	r26, r24
    1b3e:	cb 01       	movw	r24, r22
    1b40:	bc 01       	movw	r22, r24
    1b42:	cd 01       	movw	r24, r26
    1b44:	0e 94 41 00 	call	0x82	; 0x82 <__fixunssfsi>
    1b48:	dc 01       	movw	r26, r24
    1b4a:	cb 01       	movw	r24, r22
    1b4c:	9e 83       	std	Y+6, r25	; 0x06
    1b4e:	8d 83       	std	Y+5, r24	; 0x05
    1b50:	0f c0       	rjmp	.+30     	; 0x1b70 <HLCD_voidInit+0x49a>
    1b52:	88 ec       	ldi	r24, 0xC8	; 200
    1b54:	90 e0       	ldi	r25, 0x00	; 0
    1b56:	9c 83       	std	Y+4, r25	; 0x04
    1b58:	8b 83       	std	Y+3, r24	; 0x03
    1b5a:	8b 81       	ldd	r24, Y+3	; 0x03
    1b5c:	9c 81       	ldd	r25, Y+4	; 0x04
    1b5e:	01 97       	sbiw	r24, 0x01	; 1
    1b60:	f1 f7       	brne	.-4      	; 0x1b5e <HLCD_voidInit+0x488>
    1b62:	9c 83       	std	Y+4, r25	; 0x04
    1b64:	8b 83       	std	Y+3, r24	; 0x03
		while(__ticks)
		{
			// wait 1/10 ms
			_delay_loop_2(((F_CPU) / 4e3) / 10);
			__ticks --;
    1b66:	8d 81       	ldd	r24, Y+5	; 0x05
    1b68:	9e 81       	ldd	r25, Y+6	; 0x06
    1b6a:	01 97       	sbiw	r24, 0x01	; 1
    1b6c:	9e 83       	std	Y+6, r25	; 0x06
    1b6e:	8d 83       	std	Y+5, r24	; 0x05
		__ticks = 1;
	else if (__tmp > 65535)
	{
		//	__ticks = requested delay in 1/10 ms
		__ticks = (uint16_t) (__ms * 10.0);
		while(__ticks)
    1b70:	8d 81       	ldd	r24, Y+5	; 0x05
    1b72:	9e 81       	ldd	r25, Y+6	; 0x06
    1b74:	00 97       	sbiw	r24, 0x00	; 0
    1b76:	69 f7       	brne	.-38     	; 0x1b52 <HLCD_voidInit+0x47c>
    1b78:	14 c0       	rjmp	.+40     	; 0x1ba2 <HLCD_voidInit+0x4cc>
			__ticks --;
		}
		return;
	}
	else
		__ticks = (uint16_t)__tmp;
    1b7a:	6f 81       	ldd	r22, Y+7	; 0x07
    1b7c:	78 85       	ldd	r23, Y+8	; 0x08
    1b7e:	89 85       	ldd	r24, Y+9	; 0x09
    1b80:	9a 85       	ldd	r25, Y+10	; 0x0a
    1b82:	0e 94 41 00 	call	0x82	; 0x82 <__fixunssfsi>
    1b86:	dc 01       	movw	r26, r24
    1b88:	cb 01       	movw	r24, r22
    1b8a:	9e 83       	std	Y+6, r25	; 0x06
    1b8c:	8d 83       	std	Y+5, r24	; 0x05
    1b8e:	8d 81       	ldd	r24, Y+5	; 0x05
    1b90:	9e 81       	ldd	r25, Y+6	; 0x06
    1b92:	9a 83       	std	Y+2, r25	; 0x02
    1b94:	89 83       	std	Y+1, r24	; 0x01
    1b96:	89 81       	ldd	r24, Y+1	; 0x01
    1b98:	9a 81       	ldd	r25, Y+2	; 0x02
    1b9a:	01 97       	sbiw	r24, 0x01	; 1
    1b9c:	f1 f7       	brne	.-4      	; 0x1b9a <HLCD_voidInit+0x4c4>
    1b9e:	9a 83       	std	Y+2, r25	; 0x02
    1ba0:	89 83       	std	Y+1, r24	; 0x01
	//Wait for more than 39 us
	_delay_ms(1);
}
    1ba2:	ca 5b       	subi	r28, 0xBA	; 186
    1ba4:	df 4f       	sbci	r29, 0xFF	; 255
    1ba6:	0f b6       	in	r0, 0x3f	; 63
    1ba8:	f8 94       	cli
    1baa:	de bf       	out	0x3e, r29	; 62
    1bac:	0f be       	out	0x3f, r0	; 63
    1bae:	cd bf       	out	0x3d, r28	; 61
    1bb0:	cf 91       	pop	r28
    1bb2:	df 91       	pop	r29
    1bb4:	1f 91       	pop	r17
    1bb6:	0f 91       	pop	r16
    1bb8:	08 95       	ret

00001bba <HLCD_voidClearDisplay>:

void HLCD_voidClearDisplay()
{
    1bba:	df 93       	push	r29
    1bbc:	cf 93       	push	r28
    1bbe:	cd b7       	in	r28, 0x3d	; 61
    1bc0:	de b7       	in	r29, 0x3e	; 62
    1bc2:	2e 97       	sbiw	r28, 0x0e	; 14
    1bc4:	0f b6       	in	r0, 0x3f	; 63
    1bc6:	f8 94       	cli
    1bc8:	de bf       	out	0x3e, r29	; 62
    1bca:	0f be       	out	0x3f, r0	; 63
    1bcc:	cd bf       	out	0x3d, r28	; 61
	// Display Clear Command
	HLCD_voidSendCommand(DISPLAY_CLEAR);
    1bce:	81 e0       	ldi	r24, 0x01	; 1
    1bd0:	0e 94 2f 0a 	call	0x145e	; 0x145e <HLCD_voidSendCommand>
    1bd4:	80 e0       	ldi	r24, 0x00	; 0
    1bd6:	90 e0       	ldi	r25, 0x00	; 0
    1bd8:	a0 e0       	ldi	r26, 0x00	; 0
    1bda:	b0 e4       	ldi	r27, 0x40	; 64
    1bdc:	8b 87       	std	Y+11, r24	; 0x0b
    1bde:	9c 87       	std	Y+12, r25	; 0x0c
    1be0:	ad 87       	std	Y+13, r26	; 0x0d
    1be2:	be 87       	std	Y+14, r27	; 0x0e
 */
void
_delay_ms(double __ms)
{
	uint16_t __ticks;
	double __tmp = ((F_CPU) / 4e3) * __ms;
    1be4:	6b 85       	ldd	r22, Y+11	; 0x0b
    1be6:	7c 85       	ldd	r23, Y+12	; 0x0c
    1be8:	8d 85       	ldd	r24, Y+13	; 0x0d
    1bea:	9e 85       	ldd	r25, Y+14	; 0x0e
    1bec:	20 e0       	ldi	r18, 0x00	; 0
    1bee:	30 e0       	ldi	r19, 0x00	; 0
    1bf0:	4a ef       	ldi	r20, 0xFA	; 250
    1bf2:	54 e4       	ldi	r21, 0x44	; 68
    1bf4:	0e 94 17 02 	call	0x42e	; 0x42e <__mulsf3>
    1bf8:	dc 01       	movw	r26, r24
    1bfa:	cb 01       	movw	r24, r22
    1bfc:	8f 83       	std	Y+7, r24	; 0x07
    1bfe:	98 87       	std	Y+8, r25	; 0x08
    1c00:	a9 87       	std	Y+9, r26	; 0x09
    1c02:	ba 87       	std	Y+10, r27	; 0x0a
	if (__tmp < 1.0)
    1c04:	6f 81       	ldd	r22, Y+7	; 0x07
    1c06:	78 85       	ldd	r23, Y+8	; 0x08
    1c08:	89 85       	ldd	r24, Y+9	; 0x09
    1c0a:	9a 85       	ldd	r25, Y+10	; 0x0a
    1c0c:	20 e0       	ldi	r18, 0x00	; 0
    1c0e:	30 e0       	ldi	r19, 0x00	; 0
    1c10:	40 e8       	ldi	r20, 0x80	; 128
    1c12:	5f e3       	ldi	r21, 0x3F	; 63
    1c14:	0e 94 71 03 	call	0x6e2	; 0x6e2 <__ltsf2>
    1c18:	88 23       	and	r24, r24
    1c1a:	2c f4       	brge	.+10     	; 0x1c26 <HLCD_voidClearDisplay+0x6c>
		__ticks = 1;
    1c1c:	81 e0       	ldi	r24, 0x01	; 1
    1c1e:	90 e0       	ldi	r25, 0x00	; 0
    1c20:	9e 83       	std	Y+6, r25	; 0x06
    1c22:	8d 83       	std	Y+5, r24	; 0x05
    1c24:	3f c0       	rjmp	.+126    	; 0x1ca4 <HLCD_voidClearDisplay+0xea>
	else if (__tmp > 65535)
    1c26:	6f 81       	ldd	r22, Y+7	; 0x07
    1c28:	78 85       	ldd	r23, Y+8	; 0x08
    1c2a:	89 85       	ldd	r24, Y+9	; 0x09
    1c2c:	9a 85       	ldd	r25, Y+10	; 0x0a
    1c2e:	20 e0       	ldi	r18, 0x00	; 0
    1c30:	3f ef       	ldi	r19, 0xFF	; 255
    1c32:	4f e7       	ldi	r20, 0x7F	; 127
    1c34:	57 e4       	ldi	r21, 0x47	; 71
    1c36:	0e 94 11 03 	call	0x622	; 0x622 <__gtsf2>
    1c3a:	18 16       	cp	r1, r24
    1c3c:	4c f5       	brge	.+82     	; 0x1c90 <HLCD_voidClearDisplay+0xd6>
	{
		//	__ticks = requested delay in 1/10 ms
		__ticks = (uint16_t) (__ms * 10.0);
    1c3e:	6b 85       	ldd	r22, Y+11	; 0x0b
    1c40:	7c 85       	ldd	r23, Y+12	; 0x0c
    1c42:	8d 85       	ldd	r24, Y+13	; 0x0d
    1c44:	9e 85       	ldd	r25, Y+14	; 0x0e
    1c46:	20 e0       	ldi	r18, 0x00	; 0
    1c48:	30 e0       	ldi	r19, 0x00	; 0
    1c4a:	40 e2       	ldi	r20, 0x20	; 32
    1c4c:	51 e4       	ldi	r21, 0x41	; 65
    1c4e:	0e 94 17 02 	call	0x42e	; 0x42e <__mulsf3>
    1c52:	dc 01       	movw	r26, r24
    1c54:	cb 01       	movw	r24, r22
    1c56:	bc 01       	movw	r22, r24
    1c58:	cd 01       	movw	r24, r26
    1c5a:	0e 94 41 00 	call	0x82	; 0x82 <__fixunssfsi>
    1c5e:	dc 01       	movw	r26, r24
    1c60:	cb 01       	movw	r24, r22
    1c62:	9e 83       	std	Y+6, r25	; 0x06
    1c64:	8d 83       	std	Y+5, r24	; 0x05
    1c66:	0f c0       	rjmp	.+30     	; 0x1c86 <HLCD_voidClearDisplay+0xcc>
    1c68:	88 ec       	ldi	r24, 0xC8	; 200
    1c6a:	90 e0       	ldi	r25, 0x00	; 0
    1c6c:	9c 83       	std	Y+4, r25	; 0x04
    1c6e:	8b 83       	std	Y+3, r24	; 0x03
    1c70:	8b 81       	ldd	r24, Y+3	; 0x03
    1c72:	9c 81       	ldd	r25, Y+4	; 0x04
    1c74:	01 97       	sbiw	r24, 0x01	; 1
    1c76:	f1 f7       	brne	.-4      	; 0x1c74 <HLCD_voidClearDisplay+0xba>
    1c78:	9c 83       	std	Y+4, r25	; 0x04
    1c7a:	8b 83       	std	Y+3, r24	; 0x03
		while(__ticks)
		{
			// wait 1/10 ms
			_delay_loop_2(((F_CPU) / 4e3) / 10);
			__ticks --;
    1c7c:	8d 81       	ldd	r24, Y+5	; 0x05
    1c7e:	9e 81       	ldd	r25, Y+6	; 0x06
    1c80:	01 97       	sbiw	r24, 0x01	; 1
    1c82:	9e 83       	std	Y+6, r25	; 0x06
    1c84:	8d 83       	std	Y+5, r24	; 0x05
		__ticks = 1;
	else if (__tmp > 65535)
	{
		//	__ticks = requested delay in 1/10 ms
		__ticks = (uint16_t) (__ms * 10.0);
		while(__ticks)
    1c86:	8d 81       	ldd	r24, Y+5	; 0x05
    1c88:	9e 81       	ldd	r25, Y+6	; 0x06
    1c8a:	00 97       	sbiw	r24, 0x00	; 0
    1c8c:	69 f7       	brne	.-38     	; 0x1c68 <HLCD_voidClearDisplay+0xae>
    1c8e:	14 c0       	rjmp	.+40     	; 0x1cb8 <HLCD_voidClearDisplay+0xfe>
			__ticks --;
		}
		return;
	}
	else
		__ticks = (uint16_t)__tmp;
    1c90:	6f 81       	ldd	r22, Y+7	; 0x07
    1c92:	78 85       	ldd	r23, Y+8	; 0x08
    1c94:	89 85       	ldd	r24, Y+9	; 0x09
    1c96:	9a 85       	ldd	r25, Y+10	; 0x0a
    1c98:	0e 94 41 00 	call	0x82	; 0x82 <__fixunssfsi>
    1c9c:	dc 01       	movw	r26, r24
    1c9e:	cb 01       	movw	r24, r22
    1ca0:	9e 83       	std	Y+6, r25	; 0x06
    1ca2:	8d 83       	std	Y+5, r24	; 0x05
    1ca4:	8d 81       	ldd	r24, Y+5	; 0x05
    1ca6:	9e 81       	ldd	r25, Y+6	; 0x06
    1ca8:	9a 83       	std	Y+2, r25	; 0x02
    1caa:	89 83       	std	Y+1, r24	; 0x01
    1cac:	89 81       	ldd	r24, Y+1	; 0x01
    1cae:	9a 81       	ldd	r25, Y+2	; 0x02
    1cb0:	01 97       	sbiw	r24, 0x01	; 1
    1cb2:	f1 f7       	brne	.-4      	; 0x1cb0 <HLCD_voidClearDisplay+0xf6>
    1cb4:	9a 83       	std	Y+2, r25	; 0x02
    1cb6:	89 83       	std	Y+1, r24	; 0x01
	//Wait for more than 1.53ms
	_delay_ms(2);
}
    1cb8:	2e 96       	adiw	r28, 0x0e	; 14
    1cba:	0f b6       	in	r0, 0x3f	; 63
    1cbc:	f8 94       	cli
    1cbe:	de bf       	out	0x3e, r29	; 62
    1cc0:	0f be       	out	0x3f, r0	; 63
    1cc2:	cd bf       	out	0x3d, r28	; 61
    1cc4:	cf 91       	pop	r28
    1cc6:	df 91       	pop	r29
    1cc8:	08 95       	ret

00001cca <HLCD_voidDisplayString>:

void HLCD_voidDisplayString (u8 * A_ptrToString)
{
    1cca:	df 93       	push	r29
    1ccc:	cf 93       	push	r28
    1cce:	00 d0       	rcall	.+0      	; 0x1cd0 <HLCD_voidDisplayString+0x6>
    1cd0:	cd b7       	in	r28, 0x3d	; 61
    1cd2:	de b7       	in	r29, 0x3e	; 62
    1cd4:	9a 83       	std	Y+2, r25	; 0x02
    1cd6:	89 83       	std	Y+1, r24	; 0x01
    1cd8:	0b c0       	rjmp	.+22     	; 0x1cf0 <HLCD_voidDisplayString+0x26>
	while (*A_ptrToString > 0)
	{
		HLCD_voidSendData(*A_ptrToString++);
    1cda:	e9 81       	ldd	r30, Y+1	; 0x01
    1cdc:	fa 81       	ldd	r31, Y+2	; 0x02
    1cde:	20 81       	ld	r18, Z
    1ce0:	89 81       	ldd	r24, Y+1	; 0x01
    1ce2:	9a 81       	ldd	r25, Y+2	; 0x02
    1ce4:	01 96       	adiw	r24, 0x01	; 1
    1ce6:	9a 83       	std	Y+2, r25	; 0x02
    1ce8:	89 83       	std	Y+1, r24	; 0x01
    1cea:	82 2f       	mov	r24, r18
    1cec:	0e 94 cd 0a 	call	0x159a	; 0x159a <HLCD_voidSendData>
	_delay_ms(2);
}

void HLCD_voidDisplayString (u8 * A_ptrToString)
{
	while (*A_ptrToString > 0)
    1cf0:	e9 81       	ldd	r30, Y+1	; 0x01
    1cf2:	fa 81       	ldd	r31, Y+2	; 0x02
    1cf4:	80 81       	ld	r24, Z
    1cf6:	88 23       	and	r24, r24
    1cf8:	81 f7       	brne	.-32     	; 0x1cda <HLCD_voidDisplayString+0x10>
	{
		HLCD_voidSendData(*A_ptrToString++);
	}
}
    1cfa:	0f 90       	pop	r0
    1cfc:	0f 90       	pop	r0
    1cfe:	cf 91       	pop	r28
    1d00:	df 91       	pop	r29
    1d02:	08 95       	ret

00001d04 <HLCD_voidDisplayNumber>:

void HLCD_voidDisplayNumber (u32 A_u32Number)
{
    1d04:	ef 92       	push	r14
    1d06:	ff 92       	push	r15
    1d08:	0f 93       	push	r16
    1d0a:	1f 93       	push	r17
    1d0c:	df 93       	push	r29
    1d0e:	cf 93       	push	r28
    1d10:	cd b7       	in	r28, 0x3d	; 61
    1d12:	de b7       	in	r29, 0x3e	; 62
    1d14:	28 97       	sbiw	r28, 0x08	; 8
    1d16:	0f b6       	in	r0, 0x3f	; 63
    1d18:	f8 94       	cli
    1d1a:	de bf       	out	0x3e, r29	; 62
    1d1c:	0f be       	out	0x3f, r0	; 63
    1d1e:	cd bf       	out	0x3d, r28	; 61
    1d20:	6d 83       	std	Y+5, r22	; 0x05
    1d22:	7e 83       	std	Y+6, r23	; 0x06
    1d24:	8f 83       	std	Y+7, r24	; 0x07
    1d26:	98 87       	std	Y+8, r25	; 0x08
  u32 local_u32Number = 1;
    1d28:	81 e0       	ldi	r24, 0x01	; 1
    1d2a:	90 e0       	ldi	r25, 0x00	; 0
    1d2c:	a0 e0       	ldi	r26, 0x00	; 0
    1d2e:	b0 e0       	ldi	r27, 0x00	; 0
    1d30:	89 83       	std	Y+1, r24	; 0x01
    1d32:	9a 83       	std	Y+2, r25	; 0x02
    1d34:	ab 83       	std	Y+3, r26	; 0x03
    1d36:	bc 83       	std	Y+4, r27	; 0x04
  if (A_u32Number == 0)
    1d38:	8d 81       	ldd	r24, Y+5	; 0x05
    1d3a:	9e 81       	ldd	r25, Y+6	; 0x06
    1d3c:	af 81       	ldd	r26, Y+7	; 0x07
    1d3e:	b8 85       	ldd	r27, Y+8	; 0x08
    1d40:	00 97       	sbiw	r24, 0x00	; 0
    1d42:	a1 05       	cpc	r26, r1
    1d44:	b1 05       	cpc	r27, r1
    1d46:	d1 f5       	brne	.+116    	; 0x1dbc <HLCD_voidDisplayNumber+0xb8>
  {
	  HLCD_voidSendData('0');
    1d48:	80 e3       	ldi	r24, 0x30	; 48
    1d4a:	0e 94 cd 0a 	call	0x159a	; 0x159a <HLCD_voidSendData>
    1d4e:	6b c0       	rjmp	.+214    	; 0x1e26 <HLCD_voidDisplayNumber+0x122>
  }
  else
  {
	  while (A_u32Number != 0)
	  {
		  local_u32Number = ((local_u32Number*10)+(A_u32Number%10));
    1d50:	89 81       	ldd	r24, Y+1	; 0x01
    1d52:	9a 81       	ldd	r25, Y+2	; 0x02
    1d54:	ab 81       	ldd	r26, Y+3	; 0x03
    1d56:	bc 81       	ldd	r27, Y+4	; 0x04
    1d58:	2a e0       	ldi	r18, 0x0A	; 10
    1d5a:	30 e0       	ldi	r19, 0x00	; 0
    1d5c:	40 e0       	ldi	r20, 0x00	; 0
    1d5e:	50 e0       	ldi	r21, 0x00	; 0
    1d60:	bc 01       	movw	r22, r24
    1d62:	cd 01       	movw	r24, r26
    1d64:	0e 94 bb 0f 	call	0x1f76	; 0x1f76 <__mulsi3>
    1d68:	7b 01       	movw	r14, r22
    1d6a:	8c 01       	movw	r16, r24
    1d6c:	8d 81       	ldd	r24, Y+5	; 0x05
    1d6e:	9e 81       	ldd	r25, Y+6	; 0x06
    1d70:	af 81       	ldd	r26, Y+7	; 0x07
    1d72:	b8 85       	ldd	r27, Y+8	; 0x08
    1d74:	2a e0       	ldi	r18, 0x0A	; 10
    1d76:	30 e0       	ldi	r19, 0x00	; 0
    1d78:	40 e0       	ldi	r20, 0x00	; 0
    1d7a:	50 e0       	ldi	r21, 0x00	; 0
    1d7c:	bc 01       	movw	r22, r24
    1d7e:	cd 01       	movw	r24, r26
    1d80:	0e 94 da 0f 	call	0x1fb4	; 0x1fb4 <__udivmodsi4>
    1d84:	dc 01       	movw	r26, r24
    1d86:	cb 01       	movw	r24, r22
    1d88:	8e 0d       	add	r24, r14
    1d8a:	9f 1d       	adc	r25, r15
    1d8c:	a0 1f       	adc	r26, r16
    1d8e:	b1 1f       	adc	r27, r17
    1d90:	89 83       	std	Y+1, r24	; 0x01
    1d92:	9a 83       	std	Y+2, r25	; 0x02
    1d94:	ab 83       	std	Y+3, r26	; 0x03
    1d96:	bc 83       	std	Y+4, r27	; 0x04
		  A_u32Number = A_u32Number / 10;
    1d98:	8d 81       	ldd	r24, Y+5	; 0x05
    1d9a:	9e 81       	ldd	r25, Y+6	; 0x06
    1d9c:	af 81       	ldd	r26, Y+7	; 0x07
    1d9e:	b8 85       	ldd	r27, Y+8	; 0x08
    1da0:	2a e0       	ldi	r18, 0x0A	; 10
    1da2:	30 e0       	ldi	r19, 0x00	; 0
    1da4:	40 e0       	ldi	r20, 0x00	; 0
    1da6:	50 e0       	ldi	r21, 0x00	; 0
    1da8:	bc 01       	movw	r22, r24
    1daa:	cd 01       	movw	r24, r26
    1dac:	0e 94 da 0f 	call	0x1fb4	; 0x1fb4 <__udivmodsi4>
    1db0:	da 01       	movw	r26, r20
    1db2:	c9 01       	movw	r24, r18
    1db4:	8d 83       	std	Y+5, r24	; 0x05
    1db6:	9e 83       	std	Y+6, r25	; 0x06
    1db8:	af 83       	std	Y+7, r26	; 0x07
    1dba:	b8 87       	std	Y+8, r27	; 0x08
  {
	  HLCD_voidSendData('0');
  }
  else
  {
	  while (A_u32Number != 0)
    1dbc:	8d 81       	ldd	r24, Y+5	; 0x05
    1dbe:	9e 81       	ldd	r25, Y+6	; 0x06
    1dc0:	af 81       	ldd	r26, Y+7	; 0x07
    1dc2:	b8 85       	ldd	r27, Y+8	; 0x08
    1dc4:	00 97       	sbiw	r24, 0x00	; 0
    1dc6:	a1 05       	cpc	r26, r1
    1dc8:	b1 05       	cpc	r27, r1
    1dca:	11 f6       	brne	.-124    	; 0x1d50 <HLCD_voidDisplayNumber+0x4c>
    1dcc:	23 c0       	rjmp	.+70     	; 0x1e14 <HLCD_voidDisplayNumber+0x110>
		  local_u32Number = ((local_u32Number*10)+(A_u32Number%10));
		  A_u32Number = A_u32Number / 10;
	  }
	  while (local_u32Number !=1)
	  {
		  HLCD_voidSendData((local_u32Number%10)+48);
    1dce:	89 81       	ldd	r24, Y+1	; 0x01
    1dd0:	9a 81       	ldd	r25, Y+2	; 0x02
    1dd2:	ab 81       	ldd	r26, Y+3	; 0x03
    1dd4:	bc 81       	ldd	r27, Y+4	; 0x04
    1dd6:	2a e0       	ldi	r18, 0x0A	; 10
    1dd8:	30 e0       	ldi	r19, 0x00	; 0
    1dda:	40 e0       	ldi	r20, 0x00	; 0
    1ddc:	50 e0       	ldi	r21, 0x00	; 0
    1dde:	bc 01       	movw	r22, r24
    1de0:	cd 01       	movw	r24, r26
    1de2:	0e 94 da 0f 	call	0x1fb4	; 0x1fb4 <__udivmodsi4>
    1de6:	dc 01       	movw	r26, r24
    1de8:	cb 01       	movw	r24, r22
    1dea:	80 5d       	subi	r24, 0xD0	; 208
    1dec:	0e 94 cd 0a 	call	0x159a	; 0x159a <HLCD_voidSendData>
		  local_u32Number = local_u32Number /10;
    1df0:	89 81       	ldd	r24, Y+1	; 0x01
    1df2:	9a 81       	ldd	r25, Y+2	; 0x02
    1df4:	ab 81       	ldd	r26, Y+3	; 0x03
    1df6:	bc 81       	ldd	r27, Y+4	; 0x04
    1df8:	2a e0       	ldi	r18, 0x0A	; 10
    1dfa:	30 e0       	ldi	r19, 0x00	; 0
    1dfc:	40 e0       	ldi	r20, 0x00	; 0
    1dfe:	50 e0       	ldi	r21, 0x00	; 0
    1e00:	bc 01       	movw	r22, r24
    1e02:	cd 01       	movw	r24, r26
    1e04:	0e 94 da 0f 	call	0x1fb4	; 0x1fb4 <__udivmodsi4>
    1e08:	da 01       	movw	r26, r20
    1e0a:	c9 01       	movw	r24, r18
    1e0c:	89 83       	std	Y+1, r24	; 0x01
    1e0e:	9a 83       	std	Y+2, r25	; 0x02
    1e10:	ab 83       	std	Y+3, r26	; 0x03
    1e12:	bc 83       	std	Y+4, r27	; 0x04
	  while (A_u32Number != 0)
	  {
		  local_u32Number = ((local_u32Number*10)+(A_u32Number%10));
		  A_u32Number = A_u32Number / 10;
	  }
	  while (local_u32Number !=1)
    1e14:	89 81       	ldd	r24, Y+1	; 0x01
    1e16:	9a 81       	ldd	r25, Y+2	; 0x02
    1e18:	ab 81       	ldd	r26, Y+3	; 0x03
    1e1a:	bc 81       	ldd	r27, Y+4	; 0x04
    1e1c:	81 30       	cpi	r24, 0x01	; 1
    1e1e:	91 05       	cpc	r25, r1
    1e20:	a1 05       	cpc	r26, r1
    1e22:	b1 05       	cpc	r27, r1
    1e24:	a1 f6       	brne	.-88     	; 0x1dce <HLCD_voidDisplayNumber+0xca>
	  {
		  HLCD_voidSendData((local_u32Number%10)+48);
		  local_u32Number = local_u32Number /10;
	  }
  }
}
    1e26:	28 96       	adiw	r28, 0x08	; 8
    1e28:	0f b6       	in	r0, 0x3f	; 63
    1e2a:	f8 94       	cli
    1e2c:	de bf       	out	0x3e, r29	; 62
    1e2e:	0f be       	out	0x3f, r0	; 63
    1e30:	cd bf       	out	0x3d, r28	; 61
    1e32:	cf 91       	pop	r28
    1e34:	df 91       	pop	r29
    1e36:	1f 91       	pop	r17
    1e38:	0f 91       	pop	r16
    1e3a:	ff 90       	pop	r15
    1e3c:	ef 90       	pop	r14
    1e3e:	08 95       	ret

00001e40 <HLED_voidTurnOn>:
 * HAL
 */


void HLED_voidTurnOn  (DIO_PORT_e A_DIOPort,DIO_PIN_e A_PINID)
{
    1e40:	df 93       	push	r29
    1e42:	cf 93       	push	r28
    1e44:	00 d0       	rcall	.+0      	; 0x1e46 <HLED_voidTurnOn+0x6>
    1e46:	cd b7       	in	r28, 0x3d	; 61
    1e48:	de b7       	in	r29, 0x3e	; 62
    1e4a:	89 83       	std	Y+1, r24	; 0x01
    1e4c:	6a 83       	std	Y+2, r22	; 0x02
	MDIO_voidSetPinValue(A_DIOPort, A_PINID, DIO_SET);
    1e4e:	89 81       	ldd	r24, Y+1	; 0x01
    1e50:	6a 81       	ldd	r22, Y+2	; 0x02
    1e52:	41 e0       	ldi	r20, 0x01	; 1
    1e54:	0e 94 3f 07 	call	0xe7e	; 0xe7e <MDIO_voidSetPinValue>
}
    1e58:	0f 90       	pop	r0
    1e5a:	0f 90       	pop	r0
    1e5c:	cf 91       	pop	r28
    1e5e:	df 91       	pop	r29
    1e60:	08 95       	ret

00001e62 <HLED_voidTurnOff>:
void HLED_voidTurnOff (DIO_PORT_e A_DIOPort,DIO_PIN_e A_PINID)
{
    1e62:	df 93       	push	r29
    1e64:	cf 93       	push	r28
    1e66:	00 d0       	rcall	.+0      	; 0x1e68 <HLED_voidTurnOff+0x6>
    1e68:	cd b7       	in	r28, 0x3d	; 61
    1e6a:	de b7       	in	r29, 0x3e	; 62
    1e6c:	89 83       	std	Y+1, r24	; 0x01
    1e6e:	6a 83       	std	Y+2, r22	; 0x02
	MDIO_voidSetPinValue(A_DIOPort, A_PINID, DIO_RESET);
    1e70:	89 81       	ldd	r24, Y+1	; 0x01
    1e72:	6a 81       	ldd	r22, Y+2	; 0x02
    1e74:	40 e0       	ldi	r20, 0x00	; 0
    1e76:	0e 94 3f 07 	call	0xe7e	; 0xe7e <MDIO_voidSetPinValue>
}
    1e7a:	0f 90       	pop	r0
    1e7c:	0f 90       	pop	r0
    1e7e:	cf 91       	pop	r28
    1e80:	df 91       	pop	r29
    1e82:	08 95       	ret

00001e84 <HLED_voidToggleLED>:
void HLED_voidToggleLED (DIO_PORT_e A_DIOPort,DIO_PIN_e A_PINID)
{
    1e84:	df 93       	push	r29
    1e86:	cf 93       	push	r28
    1e88:	00 d0       	rcall	.+0      	; 0x1e8a <HLED_voidToggleLED+0x6>
    1e8a:	cd b7       	in	r28, 0x3d	; 61
    1e8c:	de b7       	in	r29, 0x3e	; 62
    1e8e:	89 83       	std	Y+1, r24	; 0x01
    1e90:	6a 83       	std	Y+2, r22	; 0x02
	MDIO_voidTogglePinValue(A_DIOPort, A_PINID);
    1e92:	89 81       	ldd	r24, Y+1	; 0x01
    1e94:	48 2f       	mov	r20, r24
    1e96:	50 e0       	ldi	r21, 0x00	; 0
    1e98:	8a 81       	ldd	r24, Y+2	; 0x02
    1e9a:	28 2f       	mov	r18, r24
    1e9c:	30 e0       	ldi	r19, 0x00	; 0
    1e9e:	ca 01       	movw	r24, r20
    1ea0:	b9 01       	movw	r22, r18
    1ea2:	0e 94 e3 08 	call	0x11c6	; 0x11c6 <MDIO_voidTogglePinValue>
}
    1ea6:	0f 90       	pop	r0
    1ea8:	0f 90       	pop	r0
    1eaa:	cf 91       	pop	r28
    1eac:	df 91       	pop	r29
    1eae:	08 95       	ret

00001eb0 <main>:
#define F_CPU 8000000UL



int main (void)
{
    1eb0:	df 93       	push	r29
    1eb2:	cf 93       	push	r28
    1eb4:	00 d0       	rcall	.+0      	; 0x1eb6 <main+0x6>
    1eb6:	00 d0       	rcall	.+0      	; 0x1eb8 <main+0x8>
    1eb8:	cd b7       	in	r28, 0x3d	; 61
    1eba:	de b7       	in	r29, 0x3e	; 62
	// PA0 --> I/P Floating , (PC0, PC1, PC2) --> O/P Low
	MDIO_voidInit();
    1ebc:	0e 94 f0 09 	call	0x13e0	; 0x13e0 <MDIO_voidInit>
	MADC_voidInit();
    1ec0:	0e 94 9b 05 	call	0xb36	; 0xb36 <MADC_voidInit>
	u16 local_u16DigitalValue, local_u16AnalogValue;

	while(1)
	{
		local_u16DigitalValue = MADC_u16GetDigitalvalue(ADC0);
    1ec4:	80 e0       	ldi	r24, 0x00	; 0
    1ec6:	0e 94 da 05 	call	0xbb4	; 0xbb4 <MADC_u16GetDigitalvalue>
    1eca:	9c 83       	std	Y+4, r25	; 0x04
    1ecc:	8b 83       	std	Y+3, r24	; 0x03
		local_u16AnalogValue  = (local_u16DigitalValue * 5000UL) / 1024; // Read in mv
    1ece:	8b 81       	ldd	r24, Y+3	; 0x03
    1ed0:	9c 81       	ldd	r25, Y+4	; 0x04
    1ed2:	cc 01       	movw	r24, r24
    1ed4:	a0 e0       	ldi	r26, 0x00	; 0
    1ed6:	b0 e0       	ldi	r27, 0x00	; 0
    1ed8:	28 e8       	ldi	r18, 0x88	; 136
    1eda:	33 e1       	ldi	r19, 0x13	; 19
    1edc:	40 e0       	ldi	r20, 0x00	; 0
    1ede:	50 e0       	ldi	r21, 0x00	; 0
    1ee0:	bc 01       	movw	r22, r24
    1ee2:	cd 01       	movw	r24, r26
    1ee4:	0e 94 bb 0f 	call	0x1f76	; 0x1f76 <__mulsi3>
    1ee8:	dc 01       	movw	r26, r24
    1eea:	cb 01       	movw	r24, r22
    1eec:	07 2e       	mov	r0, r23
    1eee:	7a e0       	ldi	r23, 0x0A	; 10
    1ef0:	b6 95       	lsr	r27
    1ef2:	a7 95       	ror	r26
    1ef4:	97 95       	ror	r25
    1ef6:	87 95       	ror	r24
    1ef8:	7a 95       	dec	r23
    1efa:	d1 f7       	brne	.-12     	; 0x1ef0 <main+0x40>
    1efc:	70 2d       	mov	r23, r0
    1efe:	9a 83       	std	Y+2, r25	; 0x02
    1f00:	89 83       	std	Y+1, r24	; 0x01

		if (local_u16AnalogValue < 1500)
    1f02:	89 81       	ldd	r24, Y+1	; 0x01
    1f04:	9a 81       	ldd	r25, Y+2	; 0x02
    1f06:	25 e0       	ldi	r18, 0x05	; 5
    1f08:	8c 3d       	cpi	r24, 0xDC	; 220
    1f0a:	92 07       	cpc	r25, r18
    1f0c:	68 f4       	brcc	.+26     	; 0x1f28 <main+0x78>
		{
			HLED_voidTurnOn (DIO_PORTC, PIN0);
    1f0e:	82 e0       	ldi	r24, 0x02	; 2
    1f10:	60 e0       	ldi	r22, 0x00	; 0
    1f12:	0e 94 20 0f 	call	0x1e40	; 0x1e40 <HLED_voidTurnOn>
			HLED_voidTurnOff(DIO_PORTC, PIN1);
    1f16:	82 e0       	ldi	r24, 0x02	; 2
    1f18:	61 e0       	ldi	r22, 0x01	; 1
    1f1a:	0e 94 31 0f 	call	0x1e62	; 0x1e62 <HLED_voidTurnOff>
			HLED_voidTurnOff(DIO_PORTC, PIN2);
    1f1e:	82 e0       	ldi	r24, 0x02	; 2
    1f20:	62 e0       	ldi	r22, 0x02	; 2
    1f22:	0e 94 31 0f 	call	0x1e62	; 0x1e62 <HLED_voidTurnOff>
    1f26:	ce cf       	rjmp	.-100    	; 0x1ec4 <main+0x14>
		}
		else if (local_u16AnalogValue < 3000)
    1f28:	89 81       	ldd	r24, Y+1	; 0x01
    1f2a:	9a 81       	ldd	r25, Y+2	; 0x02
    1f2c:	2b e0       	ldi	r18, 0x0B	; 11
    1f2e:	88 3b       	cpi	r24, 0xB8	; 184
    1f30:	92 07       	cpc	r25, r18
    1f32:	68 f4       	brcc	.+26     	; 0x1f4e <main+0x9e>
		{
			HLED_voidTurnOn (DIO_PORTC, PIN0);
    1f34:	82 e0       	ldi	r24, 0x02	; 2
    1f36:	60 e0       	ldi	r22, 0x00	; 0
    1f38:	0e 94 20 0f 	call	0x1e40	; 0x1e40 <HLED_voidTurnOn>
			HLED_voidTurnOn (DIO_PORTC, PIN1);
    1f3c:	82 e0       	ldi	r24, 0x02	; 2
    1f3e:	61 e0       	ldi	r22, 0x01	; 1
    1f40:	0e 94 20 0f 	call	0x1e40	; 0x1e40 <HLED_voidTurnOn>
			HLED_voidTurnOff(DIO_PORTC, PIN2);
    1f44:	82 e0       	ldi	r24, 0x02	; 2
    1f46:	62 e0       	ldi	r22, 0x02	; 2
    1f48:	0e 94 31 0f 	call	0x1e62	; 0x1e62 <HLED_voidTurnOff>
    1f4c:	bb cf       	rjmp	.-138    	; 0x1ec4 <main+0x14>
		}
		else if (local_u16AnalogValue > 3000)
    1f4e:	89 81       	ldd	r24, Y+1	; 0x01
    1f50:	9a 81       	ldd	r25, Y+2	; 0x02
    1f52:	2b e0       	ldi	r18, 0x0B	; 11
    1f54:	89 3b       	cpi	r24, 0xB9	; 185
    1f56:	92 07       	cpc	r25, r18
    1f58:	08 f4       	brcc	.+2      	; 0x1f5c <main+0xac>
    1f5a:	b4 cf       	rjmp	.-152    	; 0x1ec4 <main+0x14>
		{
			HLED_voidTurnOn (DIO_PORTC, PIN0);
    1f5c:	82 e0       	ldi	r24, 0x02	; 2
    1f5e:	60 e0       	ldi	r22, 0x00	; 0
    1f60:	0e 94 20 0f 	call	0x1e40	; 0x1e40 <HLED_voidTurnOn>
			HLED_voidTurnOn (DIO_PORTC, PIN1);
    1f64:	82 e0       	ldi	r24, 0x02	; 2
    1f66:	61 e0       	ldi	r22, 0x01	; 1
    1f68:	0e 94 20 0f 	call	0x1e40	; 0x1e40 <HLED_voidTurnOn>
			HLED_voidTurnOn (DIO_PORTC, PIN2);
    1f6c:	82 e0       	ldi	r24, 0x02	; 2
    1f6e:	62 e0       	ldi	r22, 0x02	; 2
    1f70:	0e 94 20 0f 	call	0x1e40	; 0x1e40 <HLED_voidTurnOn>
    1f74:	a7 cf       	rjmp	.-178    	; 0x1ec4 <main+0x14>

00001f76 <__mulsi3>:
    1f76:	62 9f       	mul	r22, r18
    1f78:	d0 01       	movw	r26, r0
    1f7a:	73 9f       	mul	r23, r19
    1f7c:	f0 01       	movw	r30, r0
    1f7e:	82 9f       	mul	r24, r18
    1f80:	e0 0d       	add	r30, r0
    1f82:	f1 1d       	adc	r31, r1
    1f84:	64 9f       	mul	r22, r20
    1f86:	e0 0d       	add	r30, r0
    1f88:	f1 1d       	adc	r31, r1
    1f8a:	92 9f       	mul	r25, r18
    1f8c:	f0 0d       	add	r31, r0
    1f8e:	83 9f       	mul	r24, r19
    1f90:	f0 0d       	add	r31, r0
    1f92:	74 9f       	mul	r23, r20
    1f94:	f0 0d       	add	r31, r0
    1f96:	65 9f       	mul	r22, r21
    1f98:	f0 0d       	add	r31, r0
    1f9a:	99 27       	eor	r25, r25
    1f9c:	72 9f       	mul	r23, r18
    1f9e:	b0 0d       	add	r27, r0
    1fa0:	e1 1d       	adc	r30, r1
    1fa2:	f9 1f       	adc	r31, r25
    1fa4:	63 9f       	mul	r22, r19
    1fa6:	b0 0d       	add	r27, r0
    1fa8:	e1 1d       	adc	r30, r1
    1faa:	f9 1f       	adc	r31, r25
    1fac:	bd 01       	movw	r22, r26
    1fae:	cf 01       	movw	r24, r30
    1fb0:	11 24       	eor	r1, r1
    1fb2:	08 95       	ret

00001fb4 <__udivmodsi4>:
    1fb4:	a1 e2       	ldi	r26, 0x21	; 33
    1fb6:	1a 2e       	mov	r1, r26
    1fb8:	aa 1b       	sub	r26, r26
    1fba:	bb 1b       	sub	r27, r27
    1fbc:	fd 01       	movw	r30, r26
    1fbe:	0d c0       	rjmp	.+26     	; 0x1fda <__udivmodsi4_ep>

00001fc0 <__udivmodsi4_loop>:
    1fc0:	aa 1f       	adc	r26, r26
    1fc2:	bb 1f       	adc	r27, r27
    1fc4:	ee 1f       	adc	r30, r30
    1fc6:	ff 1f       	adc	r31, r31
    1fc8:	a2 17       	cp	r26, r18
    1fca:	b3 07       	cpc	r27, r19
    1fcc:	e4 07       	cpc	r30, r20
    1fce:	f5 07       	cpc	r31, r21
    1fd0:	20 f0       	brcs	.+8      	; 0x1fda <__udivmodsi4_ep>
    1fd2:	a2 1b       	sub	r26, r18
    1fd4:	b3 0b       	sbc	r27, r19
    1fd6:	e4 0b       	sbc	r30, r20
    1fd8:	f5 0b       	sbc	r31, r21

00001fda <__udivmodsi4_ep>:
    1fda:	66 1f       	adc	r22, r22
    1fdc:	77 1f       	adc	r23, r23
    1fde:	88 1f       	adc	r24, r24
    1fe0:	99 1f       	adc	r25, r25
    1fe2:	1a 94       	dec	r1
    1fe4:	69 f7       	brne	.-38     	; 0x1fc0 <__udivmodsi4_loop>
    1fe6:	60 95       	com	r22
    1fe8:	70 95       	com	r23
    1fea:	80 95       	com	r24
    1fec:	90 95       	com	r25
    1fee:	9b 01       	movw	r18, r22
    1ff0:	ac 01       	movw	r20, r24
    1ff2:	bd 01       	movw	r22, r26
    1ff4:	cf 01       	movw	r24, r30
    1ff6:	08 95       	ret

00001ff8 <__prologue_saves__>:
    1ff8:	2f 92       	push	r2
    1ffa:	3f 92       	push	r3
    1ffc:	4f 92       	push	r4
    1ffe:	5f 92       	push	r5
    2000:	6f 92       	push	r6
    2002:	7f 92       	push	r7
    2004:	8f 92       	push	r8
    2006:	9f 92       	push	r9
    2008:	af 92       	push	r10
    200a:	bf 92       	push	r11
    200c:	cf 92       	push	r12
    200e:	df 92       	push	r13
    2010:	ef 92       	push	r14
    2012:	ff 92       	push	r15
    2014:	0f 93       	push	r16
    2016:	1f 93       	push	r17
    2018:	cf 93       	push	r28
    201a:	df 93       	push	r29
    201c:	cd b7       	in	r28, 0x3d	; 61
    201e:	de b7       	in	r29, 0x3e	; 62
    2020:	ca 1b       	sub	r28, r26
    2022:	db 0b       	sbc	r29, r27
    2024:	0f b6       	in	r0, 0x3f	; 63
    2026:	f8 94       	cli
    2028:	de bf       	out	0x3e, r29	; 62
    202a:	0f be       	out	0x3f, r0	; 63
    202c:	cd bf       	out	0x3d, r28	; 61
    202e:	09 94       	ijmp

00002030 <__epilogue_restores__>:
    2030:	2a 88       	ldd	r2, Y+18	; 0x12
    2032:	39 88       	ldd	r3, Y+17	; 0x11
    2034:	48 88       	ldd	r4, Y+16	; 0x10
    2036:	5f 84       	ldd	r5, Y+15	; 0x0f
    2038:	6e 84       	ldd	r6, Y+14	; 0x0e
    203a:	7d 84       	ldd	r7, Y+13	; 0x0d
    203c:	8c 84       	ldd	r8, Y+12	; 0x0c
    203e:	9b 84       	ldd	r9, Y+11	; 0x0b
    2040:	aa 84       	ldd	r10, Y+10	; 0x0a
    2042:	b9 84       	ldd	r11, Y+9	; 0x09
    2044:	c8 84       	ldd	r12, Y+8	; 0x08
    2046:	df 80       	ldd	r13, Y+7	; 0x07
    2048:	ee 80       	ldd	r14, Y+6	; 0x06
    204a:	fd 80       	ldd	r15, Y+5	; 0x05
    204c:	0c 81       	ldd	r16, Y+4	; 0x04
    204e:	1b 81       	ldd	r17, Y+3	; 0x03
    2050:	aa 81       	ldd	r26, Y+2	; 0x02
    2052:	b9 81       	ldd	r27, Y+1	; 0x01
    2054:	ce 0f       	add	r28, r30
    2056:	d1 1d       	adc	r29, r1
    2058:	0f b6       	in	r0, 0x3f	; 63
    205a:	f8 94       	cli
    205c:	de bf       	out	0x3e, r29	; 62
    205e:	0f be       	out	0x3f, r0	; 63
    2060:	cd bf       	out	0x3d, r28	; 61
    2062:	ed 01       	movw	r28, r26
    2064:	08 95       	ret

00002066 <_exit>:
    2066:	f8 94       	cli

00002068 <__stop_program>:
    2068:	ff cf       	rjmp	.-2      	; 0x2068 <__stop_program>
